
Allocating common symbols
Common symbol       size              file

netbufpool          0x4               binaries/net.o
readylist           0x2               binaries/ready.o
rfltab              0x5a0             binaries/rflinit.o
sleepq              0x2               binaries/clkinit.o
nnames              0x4               binaries/naminit.o
udptab              0x168             binaries/udp.o
minheap             0x4               binaries/meminit.o
marks               0x50              binaries/mark.o
currpid             0x4               binaries/initialize.o
Lf_data             0x20c             binaries/lfsinit.o
porttab             0x2d0             binaries/ptinit.o
girmask             0x2               binaries/evec.o
ttytab              0x10c             binaries/ttyinit.o
proctab             0x1770            binaries/initialize.o
prcount             0x4               binaries/initialize.o
ebp                 0x4               binaries/stackdepth.o
lfltab              0xf00             binaries/lflinit.o
rdstab              0x8c              binaries/rdsinit.o
ethertab            0x138             binaries/ethinit.o
NetData             0xa8              binaries/net.o
nmarks              0x4               binaries/mark.o
Defer               0x8               binaries/resched.o
semtab              0x4b0             binaries/initialize.o
maxheap             0x4               binaries/meminit.o
preempt             0x4               binaries/clkinit.o
buftab              0xf0              binaries/bufinit.o
Rf_data             0x18              binaries/rfsinit.o
mkmutex             0x4               binaries/mark.o
clktime             0x4               binaries/clkinit.o
arpcache            0x140             binaries/arp.o
icmptab             0x230             binaries/icmp.o
nbpools             0x4               binaries/bufinit.o
queuetab            0x980             binaries/queue.o
esp                 0x4               binaries/stackdepth.o
ptnextid            0x4               binaries/ptinit.o
Ram                 0x19000           binaries/raminit.o
ipoqueue            0x2c              binaries/ip.o
memlist             0x8               binaries/initialize.o
nametab             0x19a0            binaries/naminit.o
ptfree              0x4               binaries/ptinit.o

Memory Configuration

Name             Origin             Length             Attributes
*default*        0x0000000000000000 0xffffffffffffffff

Linker script and memory map

                0x0000000000100000                physbase = 0x100000
                0x0000000000100000                . = physbase
                0x0000000000100000                . = ALIGN (0x1000)

.text           0x0000000000100000    0x15000
                0x0000000000100000                text = ABSOLUTE (.)
 *(.text .text.*)
 .text          0x0000000000100000      0x1ac binaries/start.o
                0x0000000000100028                start
                0x00000000001000fa                inb
                0x0000000000100102                inw
                0x000000000010010b                inl
                0x0000000000100113                outb
                0x000000000010011d                outw
                0x0000000000100128                outl
                0x0000000000100132                _rtcin
                0x000000000010013d                ___udivsi3
                0x0000000000100148                ___divsi3
                0x0000000000100154                sbzero
                0x0000000000100164                bcopy
                0x0000000000100178                insw
                0x000000000010018e                outsw
                0x00000000001001a4                lidt
 .text          0x00000000001001ac      0x2df binaries/ascdate.o
                0x00000000001001ac                ascdate
 .text          0x000000000010048b       0x14 binaries/bufinit.o
                0x000000000010048b                bufinit
 .text          0x000000000010049f       0x6c binaries/chprio.o
                0x000000000010049f                chprio
 .text          0x000000000010050b       0x7a binaries/clkhandler.o
                0x000000000010050b                clkhandler
 .text          0x0000000000100585       0x77 binaries/clkinit.o
                0x0000000000100585                clkinit
 .text          0x00000000001005fc       0x51 binaries/close.o
                0x00000000001005fc                close
 .text          0x000000000010064d        0x0 binaries/conf.o
 .text          0x000000000010064d       0x66 binaries/control.o
                0x000000000010064d                control
 .text          0x00000000001006b3       0xad binaries/cpuintensive.o
                0x00000000001006b3                cpuintensive
 .text          0x0000000000100760      0x206 binaries/create.o
                0x0000000000100760                create
 .text          0x0000000000100966      0x2bb binaries/early_imr.o
                0x0000000000100966                intel_cln_early_sb_read_reg
                0x00000000001009cd                intel_cln_early_sb_write_reg
                0x0000000000100ae0                remove_irm_protections
 .text          0x0000000000100c21      0x37f binaries/evec.o
                0x0000000000100c21                setirmask
                0x0000000000100c60                set_evec
                0x0000000000100cbf                initevec
                0x0000000000100dd3                trap
 .text          0x0000000000100fa0       0x6a binaries/freebuf.o
                0x0000000000100fa0                freebuf
 .text          0x000000000010100a      0x102 binaries/freemem.o
                0x000000000010100a                freemem
 .text          0x000000000010110c       0x69 binaries/getbuf.o
                0x000000000010110c                getbuf
 .text          0x0000000000101175       0x51 binaries/getc.o
                0x0000000000101175                getc
 .text          0x00000000001011c6       0x68 binaries/getdev.o
                0x00000000001011c6                getdev
 .text          0x000000000010122e       0x86 binaries/getitem.o
                0x000000000010122e                getitem
                0x000000000010125d                getfirst
                0x0000000000101286                getlast
 .text          0x00000000001012b4       0xb5 binaries/getmem.o
                0x00000000001012b4                getmem
 .text          0x0000000000101369        0xa binaries/getpid.o
                0x0000000000101369                getpid
 .text          0x0000000000101373       0x5f binaries/getprio.o
                0x0000000000101373                getprio
 .text          0x00000000001013d2       0xa2 binaries/getstk.o
                0x00000000001013d2                getstk
 .text          0x0000000000101474       0x32 binaries/gettime.o
                0x0000000000101474                gettime
 .text          0x00000000001014a6      0x1b4 binaries/getutime.o
                0x00000000001014a6                getutime
 .text          0x000000000010165a       0x51 binaries/init.o
                0x000000000010165a                init
 .text          0x00000000001016ab      0x2d0 binaries/initialize.o
                0x00000000001016ab                nulluser
                0x000000000010192e                stop
                0x0000000000101955                delay
 .text          0x000000000010197b       0xa1 binaries/insert.o
                0x000000000010197b                insert
 .text          0x0000000000101a1c       0xf1 binaries/insertd.o
                0x0000000000101a1c                insertd
 .text          0x0000000000101b0d        0xa binaries/ioerr.o
                0x0000000000101b0d                ioerr
 .text          0x0000000000101b17       0x87 binaries/iointensive.o
                0x0000000000101b17                iointensive
 .text          0x0000000000101b9e        0xa binaries/ionull.o
                0x0000000000101b9e                ionull
 .text          0x0000000000101ba8      0x142 binaries/kill.o
                0x0000000000101ba8                kill
 .text          0x0000000000101cea       0xbf binaries/kprintf.o
                0x0000000000101cea                kputc
                0x0000000000101d1c                console_init
                0x0000000000101d5c                kgetc
                0x0000000000101d82                kprintf
 .text          0x0000000000101da9       0x2e binaries/lab0app1.o
                0x0000000000101da9                lab0app1
 .text          0x0000000000101dd7       0x3d binaries/lab0app2.o
                0x0000000000101dd7                lab0app2
 .text          0x0000000000101e14      0x877 binaries/main.o
                0x0000000000101e14                printloop
                0x0000000000101e47                main
 .text          0x000000000010268b       0x97 binaries/mark.o
                0x000000000010268b                markinit
                0x00000000001026ae                mark
 .text          0x0000000000102722      0x1c7 binaries/meminit.o
                0x0000000000102722                meminit
                0x0000000000102871                setsegs
 .text          0x00000000001028e9      0x111 binaries/mkbufpool.o
                0x00000000001028e9                mkbufpool
 .text          0x00000000001029fa       0x81 binaries/myattacker.o
                0x00000000001029fa                myattacker
 .text          0x0000000000102a7b       0x2f binaries/myattackermalware.o
                0x0000000000102a7b                myattackermalware
 .text          0x0000000000102aaa       0x6c binaries/myvictim.o
                0x0000000000102aaa                func2
                0x0000000000102abe                func1
                0x0000000000102aeb                myvictim
 .text          0x0000000000102b16       0x63 binaries/newqueue.o
                0x0000000000102b16                newqueue
 .text          0x0000000000102b79       0x5f binaries/open.o
                0x0000000000102b79                open
 .text          0x0000000000102bd8       0x20 binaries/panic.o
                0x0000000000102bd8                panic
 .text          0x0000000000102bf8      0x27a binaries/pci.o
                0x0000000000102bf8                pci_init
                0x0000000000102c02                find_pci_device
                0x0000000000102cbf                pci_read_config_byte
                0x0000000000102cfb                pci_read_config_word
                0x0000000000102d39                pci_read_config_dword
                0x0000000000102d75                pci_write_config_byte
                0x0000000000102daf                pci_write_config_word
                0x0000000000102dea                pci_write_config_dword
                0x0000000000102e24                pci_get_dev_mmio_base_addr
 .text          0x0000000000102e72       0x5a binaries/platinit.o
                0x0000000000102e72                platinit
 .text          0x0000000000102ecc      0x149 binaries/printsegaddress.o
                0x0000000000102ecc                printsegaddress
 .text          0x0000000000103015       0xa9 binaries/ptclear.o
                0x0000000000103015                _ptclear
 .text          0x00000000001030be       0x71 binaries/ptcount.o
                0x00000000001030be                ptcount
 .text          0x000000000010312f       0xc3 binaries/ptcreate.o
                0x000000000010312f                ptcreate
 .text          0x00000000001031f2       0x68 binaries/ptdelete.o
                0x00000000001031f2                ptdelete
 .text          0x000000000010325a       0x8c binaries/ptinit.o
                0x000000000010325a                ptinit
 .text          0x00000000001032e6       0xc0 binaries/ptrecv.o
                0x00000000001032e6                ptrecv
 .text          0x00000000001033a6       0x62 binaries/ptreset.o
                0x00000000001033a6                ptreset
 .text          0x0000000000103408       0xd2 binaries/ptsend.o
                0x0000000000103408                ptsend
 .text          0x00000000001034da       0x5f binaries/putc.o
                0x00000000001034da                putc
 .text          0x0000000000103539       0xd3 binaries/quark_irq.o
                0x0000000000103539                quark_irq_routing
 .text          0x000000000010360c      0x1c1 binaries/quark_pdat.o
                0x000000000010360c                get_quark_pdat_entry_data_by_id
                0x00000000001036e9                get_quark_pdat_entry_data_by_desc
 .text          0x00000000001037cd       0xb5 binaries/queue.o
                0x00000000001037cd                enqueue
                0x000000000010383b                dequeue
 .text          0x0000000000103882       0x5f binaries/read.o
                0x0000000000103882                read
 .text          0x00000000001038e1       0x6d binaries/ready.o
                0x00000000001038e1                ready
 .text          0x000000000010394e       0x55 binaries/receive.o
                0x000000000010394e                receive
 .text          0x00000000001039a3       0x46 binaries/recvclr.o
                0x00000000001039a3                recvclr
 .text          0x00000000001039e9       0xa0 binaries/recvtime.o
                0x00000000001039e9                recvtime
 .text          0x0000000000103a89      0x163 binaries/resched.o
                0x0000000000103a89                resched
                0x0000000000103b7a                resched_cntl
 .text          0x0000000000103bec       0x8a binaries/resume.o
                0x0000000000103bec                resume
 .text          0x0000000000103c76       0x58 binaries/seek.o
                0x0000000000103c76                seek
 .text          0x0000000000103cce       0x4a binaries/semcount.o
                0x0000000000103cce                semcount
 .text          0x0000000000103d18       0x95 binaries/semcreate.o
                0x0000000000103d18                semcreate
 .text          0x0000000000103dad       0xab binaries/semdelete.o
                0x0000000000103dad                semdelete
 .text          0x0000000000103e58       0x96 binaries/semreset.o
                0x0000000000103e58                semreset
 .text          0x0000000000103eee       0xb6 binaries/send.o
                0x0000000000103eee                send
 .text          0x0000000000103fa4       0x7f binaries/signal.o
                0x0000000000103fa4                signal
 .text          0x0000000000104023       0xaa binaries/signaln.o
                0x0000000000104023                signaln
 .text          0x00000000001040cd       0xbf binaries/sleep.o
                0x00000000001040cd                sleepms
                0x000000000010415a                sleep
 .text          0x000000000010418c       0xe8 binaries/stackdepth.o
                0x000000000010418c                stackdepth
 .text          0x0000000000104274      0x198 binaries/stacktrace.o
                0x0000000000104274                stacktrace
 .text          0x000000000010440c       0xb9 binaries/suspend.o
                0x000000000010440c                suspend
 .text          0x00000000001044c5       0xab binaries/unsleep.o
                0x00000000001044c5                unsleep
 .text          0x0000000000104570       0x15 binaries/userret.o
                0x0000000000104570                userret
 .text          0x0000000000104585       0xa2 binaries/wait.o
                0x0000000000104585                wait
 .text          0x0000000000104627       0x72 binaries/wakeup.o
                0x0000000000104627                wakeup
 .text          0x0000000000104699       0x5f binaries/write.o
                0x0000000000104699                write
 .text          0x00000000001046f8       0x19 binaries/xdone.o
                0x00000000001046f8                xdone
 .text          0x0000000000104711       0x26 binaries/yield.o
                0x0000000000104711                yield
 .text          0x0000000000104737       0x11 binaries/abs.o
                0x0000000000104737                abs
 .text          0x0000000000104748       0x73 binaries/atoi.o
                0x0000000000104748                atoi
 .text          0x00000000001047bb       0x73 binaries/atol.o
                0x00000000001047bb                atol
 .text          0x000000000010482e       0x1a binaries/bzero.o
                0x000000000010482e                bzero
 .text          0x0000000000104848        0x0 binaries/ctype_.o
 .text          0x0000000000104848      0x682 binaries/doprnt.o
                0x0000000000104998                _doprnt
 .text          0x0000000000104eca      0x576 binaries/doscan.o
                0x0000000000104eca                _doscan
 .text          0x0000000000105440      0x635 binaries/fdoprnt.o
                0x00000000001054c2                _fdoprnt
 .text          0x0000000000105a75       0x1c binaries/fgetc.o
                0x0000000000105a75                fgetc
 .text          0x0000000000105a91       0x5d binaries/fgets.o
                0x0000000000105a91                fgets
 .text          0x0000000000105aee       0x2e binaries/fprintf.o
                0x0000000000105aee                fprintf
 .text          0x0000000000105b1c       0x27 binaries/fputc.o
                0x0000000000105b1c                fputc
 .text          0x0000000000105b43       0x3c binaries/fputs.o
                0x0000000000105b43                fputs
 .text          0x0000000000105b7f       0x7b binaries/fscanf.o
                0x0000000000105bbb                fscanf
 .text          0x0000000000105bfa       0x28 binaries/getchar.o
                0x0000000000105bfa                getchar
 .text          0x0000000000105c22       0x11 binaries/labs.o
                0x0000000000105c22                labs
 .text          0x0000000000105c33       0x36 binaries/memchr.o
                0x0000000000105c33                memchr
 .text          0x0000000000105c69       0x4b binaries/memcmp.o
                0x0000000000105c69                memcmp
 .text          0x0000000000105cb4       0x26 binaries/memcpy.o
                0x0000000000105cb4                memcpy
 .text          0x0000000000105cda       0x1f binaries/memset.o
                0x0000000000105cda                memset
 .text          0x0000000000105cf9       0x43 binaries/printf.o
                0x0000000000105cf9                printf
 .text          0x0000000000105d3c       0x2f binaries/putchar.o
                0x0000000000105d3c                putchar
 .text          0x0000000000105d6b      0x1c2 binaries/qsort.o
                0x0000000000105f05                qsort
 .text          0x0000000000105f2d       0x4b binaries/rand.o
                0x0000000000105f2d                srand
                0x0000000000105f3a                rand
 .text          0x0000000000105f78       0x55 binaries/sprintf.o
                0x0000000000105f91                sprintf
 .text          0x0000000000105fcd       0x6f binaries/sscanf.o
                0x0000000000105ffd                sscanf
 .text          0x000000000010603c       0x35 binaries/strchr.o
                0x000000000010603c                strchr
 .text          0x0000000000106071       0x45 binaries/strcmp.o
                0x0000000000106071                strcmp
 .text          0x00000000001060b6       0x1c binaries/strcpy.o
                0x00000000001060b6                strcpy
 .text          0x00000000001060d2       0x20 binaries/strlen.o
                0x00000000001060d2                strlen
 .text          0x00000000001060f2       0x3c binaries/strncat.o
                0x00000000001060f2                strncat
 .text          0x000000000010612e       0x3b binaries/strncmp.o
                0x000000000010612e                strncmp
 .text          0x0000000000106169       0x59 binaries/strncpy.o
                0x0000000000106169                strncpy
 .text          0x00000000001061c2       0x32 binaries/strnlen.o
                0x00000000001061c2                strnlen
 .text          0x00000000001061f4       0x32 binaries/strrchr.o
                0x00000000001061f4                strrchr
 .text          0x0000000000106226       0x71 binaries/strstr.o
                0x0000000000106226                strstr
 .text          0x0000000000106297       0xbd binaries/ttycontrol.o
                0x0000000000106297                ttycontrol
 .text          0x0000000000106354       0x7e binaries/ttygetc.o
                0x0000000000106354                ttygetc
 .text          0x00000000001063d2      0x4a3 binaries/ttyhandle_in.o
                0x0000000000106495                ttyhandle_in
 .text          0x0000000000106875      0x170 binaries/ttyhandle_out.o
                0x0000000000106875                ttyhandle_out
 .text          0x00000000001069e5       0x87 binaries/ttyhandler.o
                0x00000000001069e5                ttyhandler
 .text          0x0000000000106a6c      0x151 binaries/ttyinit.o
                0x0000000000106a6c                ttyinit
 .text          0x0000000000106bbd        0xf binaries/ttykickout.o
                0x0000000000106bbd                ttykickout
 .text          0x0000000000106bcc       0x95 binaries/ttyputc.o
                0x0000000000106bcc                ttyputc
 .text          0x0000000000106c61       0xec binaries/ttyread.o
                0x0000000000106c61                ttyread
 .text          0x0000000000106d4d       0x4e binaries/ttywrite.o
                0x0000000000106d4d                ttywrite
 .text          0x0000000000106d9b      0x110 binaries/mount.o
                0x0000000000106d9b                namlen
                0x0000000000106dd7                mount
 .text          0x0000000000106eab      0x205 binaries/naminit.o
                0x0000000000106eab                naminit
 .text          0x00000000001070b0      0x203 binaries/nammap.o
                0x00000000001070b0                namrepl
                0x00000000001071c3                namcpy
                0x0000000000107211                nammap
 .text          0x00000000001072b3       0x4e binaries/namopen.o
                0x00000000001072b3                namopen
 .text          0x0000000000107301       0xdd binaries/colon2mac.o
                0x0000000000107301                colon2mac
 .text          0x00000000001073de       0x77 binaries/ethcontrol.o
                0x00000000001073de                ethcontrol
 .text          0x0000000000107455      0x106 binaries/ethhandler.o
                0x0000000000107455                ethhandler
 .text          0x000000000010755b      0x4da binaries/ethinit.o
                0x000000000010755b                eth_phy_read
                0x000000000010759d                eth_phy_write
                0x00000000001075e0                eth_phy_reset
                0x00000000001076df                ethinit
 .text          0x0000000000107a35      0x125 binaries/ethmcast.o
                0x0000000000107a35                ethmcast_add
                0x0000000000107a8a                ethmcast_remove
 .text          0x0000000000107b5a      0x14b binaries/ethread.o
                0x0000000000107b5a                ethread
 .text          0x0000000000107ca5       0xa6 binaries/ethwrite.o
                0x0000000000107ca5                ethwrite
 .text          0x0000000000107d4b       0x65 binaries/rdsbufalloc.o
                0x0000000000107d4b                rdsbufalloc
 .text          0x0000000000107db0       0x82 binaries/rdsclose.o
                0x0000000000107db0                rdsclose
 .text          0x0000000000107e32      0x1f1 binaries/rdscomm.o
                0x0000000000107e32                rdscomm
 .text          0x0000000000108023      0x18f binaries/rdscontrol.o
                0x0000000000108023                rdscontrol
 .text          0x00000000001081b2      0x183 binaries/rdsinit.o
                0x00000000001081b2                rdsinit
 .text          0x0000000000108335      0x15b binaries/rdsopen.o
                0x0000000000108335                rdsopen
 .text          0x0000000000108490      0x2e4 binaries/rdsprocess.o
                0x0000000000108490                rdsprocess
 .text          0x0000000000108774      0x18b binaries/rdsread.o
                0x0000000000108774                rdsread
 .text          0x00000000001088ff      0x141 binaries/rdswrite.o
                0x00000000001088ff                rdswrite
 .text          0x0000000000108a40        0xa binaries/ramclose.o
                0x0000000000108a40                ramclose
 .text          0x0000000000108a4a       0x45 binaries/raminit.o
                0x0000000000108a4a                raminit
 .text          0x0000000000108a8f        0xa binaries/ramopen.o
                0x0000000000108a8f                ramopen
 .text          0x0000000000108a99       0x2f binaries/ramread.o
                0x0000000000108a99                ramread
 .text          0x0000000000108ac8       0x2f binaries/ramwrite.o
                0x0000000000108ac8                ramwrite
 .text          0x0000000000108af7       0x94 binaries/lfdballoc.o
                0x0000000000108af7                lfdballoc
 .text          0x0000000000108b8b       0x5d binaries/lfdbfree.o
                0x0000000000108b8b                lfdbfree
 .text          0x0000000000108be8       0xad binaries/lfflush.o
                0x0000000000108be8                lfflush
 .text          0x0000000000108c95       0x82 binaries/lfgetmode.o
                0x0000000000108c95                lfgetmode
 .text          0x0000000000108d17       0x6a binaries/lfiballoc.o
                0x0000000000108d17                lfiballoc
 .text          0x0000000000108d81       0x27 binaries/lfibclear.o
                0x0000000000108d81                lfibclear
 .text          0x0000000000108da8       0x75 binaries/lfibget.o
                0x0000000000108da8                lfibget
 .text          0x0000000000108e1d       0x9d binaries/lfibput.o
                0x0000000000108e1d                lfibput
 .text          0x0000000000108eba       0x79 binaries/lflclose.o
                0x0000000000108eba                lflclose
 .text          0x0000000000108f33       0xa3 binaries/lflcontrol.o
                0x0000000000108f33                lflcontrol
 .text          0x0000000000108fd6       0xa1 binaries/lflgetc.o
                0x0000000000108fd6                lflgetc
 .text          0x0000000000109077       0xbb binaries/lflinit.o
                0x0000000000109077                lflinit
 .text          0x0000000000109132       0xbc binaries/lflputc.o
                0x0000000000109132                lflputc
 .text          0x00000000001091ee       0x6b binaries/lflread.o
                0x00000000001091ee                lflread
 .text          0x0000000000109259       0x84 binaries/lflseek.o
                0x0000000000109259                lflseek
 .text          0x00000000001092dd       0x5a binaries/lflwrite.o
                0x00000000001092dd                lflwrite
 .text          0x0000000000109337      0x126 binaries/lfsckfmt.o
                0x0000000000109337                lfsckfmt
 .text          0x000000000010945d      0x201 binaries/lfscreate.o
                0x000000000010945d                lfscreate
 .text          0x000000000010965e      0x1b8 binaries/lfsetup.o
                0x000000000010965e                lfsetup
 .text          0x0000000000109816       0x52 binaries/lfsinit.o
                0x0000000000109816                lfsinit
 .text          0x0000000000109868      0x2ab binaries/lfsopen.o
                0x0000000000109868                lfsopen
 .text          0x0000000000109b13      0x117 binaries/lftruncate.o
                0x0000000000109b13                lftruncate
 .text          0x0000000000109c2a       0x5a binaries/rflclose.o
                0x0000000000109c2a                rflclose
 .text          0x0000000000109c84       0x32 binaries/rflgetc.o
                0x0000000000109c84                rflgetc
 .text          0x0000000000109cb6       0x4e binaries/rflinit.o
                0x0000000000109cb6                rflinit
 .text          0x0000000000109d04       0x37 binaries/rflputc.o
                0x0000000000109d04                rflputc
 .text          0x0000000000109d3b      0x285 binaries/rflread.o
                0x0000000000109d3b                rflread
 .text          0x0000000000109fc0       0x5f binaries/rflseek.o
                0x0000000000109fc0                rflseek
 .text          0x000000000010a01f      0x2c5 binaries/rflwrite.o
                0x000000000010a01f                rflwrite
 .text          0x000000000010a2e4      0x183 binaries/rfscomm.o
                0x000000000010a2e4                rfscomm
 .text          0x000000000010a467      0x232 binaries/rfscontrol.o
                0x000000000010a467                rfscontrol
 .text          0x000000000010a699       0x82 binaries/rfsgetmode.o
                0x000000000010a699                rfsgetmode
 .text          0x000000000010a71b       0x77 binaries/rfsinit.o
                0x000000000010a71b                rfsinit
 .text          0x000000000010a792       0xb1 binaries/rfsndmsg.o
                0x000000000010a792                rfsndmsg
 .text          0x000000000010a843      0x220 binaries/rfsopen.o
                0x000000000010a843                rfsopen
 .text          0x000000000010aa63      0x645 binaries/arp.o
                0x000000000010aa63                arp_init
                0x000000000010aa7f                arp_alloc
                0x000000000010ab33                arp_ntoh
                0x000000000010aba0                arp_hton
                0x000000000010ac0d                arp_resolve
                0x000000000010ae7b                arp_in
 .text          0x000000000010b0a8      0x667 binaries/dhcp.o
                0x000000000010b0a8                dhcp_get_opt_val
                0x000000000010b0fc                dhcp_bld_bootp_msg
                0x000000000010b1fd                dhcp_bld_disc
                0x000000000010b252                dhcp_bld_req
                0x000000000010b2f1                getlocalip
 .text          0x000000000010b70f       0xe0 binaries/dot2ip.o
                0x000000000010b70f                dot2ip
 .text          0x000000000010b7ef      0x373 binaries/hexdump.o
                0x000000000010b7ef                hexdump
                0x000000000010b928                hexadump
 .text          0x000000000010bb62      0x5fb binaries/icmp.o
                0x000000000010bb62                icmp_init
                0x000000000010bb7e                icmp_register
                0x000000000010bc33                icmp_recv
                0x000000000010bd84                icmp_mkpkt
                0x000000000010be5b                icmp_in
                0x000000000010bf97                icmp_send
                0x000000000010c013                icmp_release
                0x000000000010c0d0                icmp_cksum
                0x000000000010c12f                icmp_hton
                0x000000000010c146                icmp_ntoh
 .text          0x000000000010c15d      0x57c binaries/ip.o
                0x000000000010c15d                ip_local
                0x000000000010c191                ipcksum
                0x000000000010c1e5                ip_ntoh
                0x000000000010c252                ip_in
                0x000000000010c34a                ip_hton
                0x000000000010c3b7                ip_out
                0x000000000010c46e                ip_send
                0x000000000010c56c                ipout
                0x000000000010c64b                ip_enqueue
 .text          0x000000000010c6d9      0x1dd binaries/net.o
                0x000000000010c6d9                net_init
                0x000000000010c815                eth_hton
                0x000000000010c822                eth_ntoh
                0x000000000010c82f                netin
 .text          0x000000000010c8b6       0xd7 binaries/netstart.o
                0x000000000010c8b6                netstart
 .text          0x000000000010c98d      0xb45 binaries/pdump.o
                0x000000000010c98d                pdump
                0x000000000010cffd                pdumph
 .text          0x000000000010d4d2      0x5ce binaries/tftp.o
                0x000000000010d4d2                tftp_send1
                0x000000000010d5fe                tftpget_mb
                0x000000000010da67                tftpget
 .text          0x000000000010daa0      0x7f1 binaries/udp.o
                0x000000000010daa0                udp_init
                0x000000000010dae1                udp_in
                0x000000000010dba2                udp_register
                0x000000000010dc8e                udp_recv
                0x000000000010ddae                udp_recvaddr
                0x000000000010dee3                udp_send
                0x000000000010e059                udp_sendto
                0x000000000010e1a6                udp_release
                0x000000000010e263                udp_ntoh
                0x000000000010e27a                udp_hton
 .text          0x000000000010e291       0xff binaries/addargs.o
                0x000000000010e291                addargs
 .text          0x000000000010e390      0x1f1 binaries/lexan.o
                0x000000000010e390                lexan
 .text          0x000000000010e581      0x6ad binaries/shell.o
                0x000000000010e581                shell
 .text          0x000000000010ec2e       0x5d binaries/xsh_argecho.o
                0x000000000010ec2e                xsh_argecho
 .text          0x000000000010ec8b      0x1d4 binaries/xsh_arp.o
                0x000000000010ec8b                xsh_arp
 .text          0x000000000010ee5f      0x220 binaries/xsh_cat.o
                0x000000000010ee5f                xsh_cat
 .text          0x000000000010f07f      0x138 binaries/xsh_cd.o
                0x000000000010f07f                xsh_cd
 .text          0x000000000010f1b7       0x57 binaries/xsh_clear.o
                0x000000000010f1b7                xsh_clear
 .text          0x000000000010f20e      0x2bd binaries/xsh_date.o
                0x000000000010f20e                xsh_date
 .text          0x000000000010f4cb       0x92 binaries/xsh_devdump.o
                0x000000000010f4cb                xsh_devdump
 .text          0x000000000010f55d       0x62 binaries/xsh_echo.o
                0x000000000010f55d                xsh_echo
 .text          0x000000000010f5bf        0xa binaries/xsh_exit.o
                0x000000000010f5bf                xsh_exit
 .text          0x000000000010f5c9      0x332 binaries/xsh_help.o
                0x000000000010f5c9                xsh_help
 .text          0x000000000010f8fb      0x42d binaries/xsh_ipaddr.o
                0x000000000010f8fb                xsh_ipaddr
 .text          0x000000000010fd28      0x1fb binaries/xsh_kill.o
                0x000000000010fd28                xsh_kill
 .text          0x000000000010ff23      0x402 binaries/xsh_memdump.o
                0x000000000010ffdd                xsh_memdump
 .text          0x0000000000110325      0x1fd binaries/xsh_memstat.o
                0x0000000000110325                xsh_memstat
 .text          0x0000000000110522      0x31c binaries/xsh_ping.o
                0x0000000000110522                xsh_ping
 .text          0x000000000011083e      0x1fe binaries/xsh_ps.o
                0x000000000011083e                xsh_ps
 .text          0x0000000000110a3c      0x1e9 binaries/xsh_sleep.o
                0x0000000000110a3c                xsh_sleep
 .text          0x0000000000110c25      0x22a binaries/xsh_udpdump.o
                0x0000000000110c25                xsh_udpdump
 .text          0x0000000000110e4f      0x454 binaries/xsh_udpecho.o
                0x0000000000110e4f                xsh_udpecho
 .text          0x00000000001112a3      0x27d binaries/xsh_udpeserver.o
                0x00000000001112a3                xsh_udpeserver
 .text          0x0000000000111520      0x1cd binaries/xsh_uptime.o
                0x0000000000111520                xsh_uptime
 .text          0x00000000001116ed        0xe binaries/clkdisp.o
                0x00000000001116ed                clkdisp
 .text          0x00000000001116fb       0x19 binaries/ctxsw.o
                0x00000000001116fb                ctxsw
 .text          0x0000000000111714        0xa binaries/host2netl.o
                0x0000000000111714                host2netl
 .text          0x000000000011171e      0x36b binaries/intr.o
                0x000000000011171e                disable
                0x0000000000111727                restore
                0x0000000000111735                enable
                0x0000000000111737                pause
                0x000000000011173e                halt
                0x0000000000111744                spurious_irq7
                0x0000000000111749                spurious_irq15
                0x0000000000111758                _Xint0
                0x0000000000111763                _Xint1
                0x000000000011176e                _Xint2
                0x0000000000111779                _Xint3
                0x0000000000111784                _Xint4
                0x000000000011178f                _Xint5
                0x000000000011179a                _Xint6
                0x00000000001117a5                _Xint7
                0x00000000001117b0                _Xint8
                0x00000000001117bb                _Xint9
                0x00000000001117c6                _Xint10
                0x00000000001117d1                _Xint11
                0x00000000001117df                _Xint12
                0x00000000001117ed                _Xint13
                0x00000000001117fb                _Xint14
                0x0000000000111809                _Xint15
                0x0000000000111817                _Xint16
                0x0000000000111825                _Xint17
                0x0000000000111833                _Xint18
                0x0000000000111841                _Xint19
                0x000000000011184f                _Xint20
                0x000000000011185d                _Xint21
                0x000000000011186b                _Xint22
                0x0000000000111879                _Xint23
                0x0000000000111887                _Xint24
                0x0000000000111895                _Xint25
                0x00000000001118a3                _Xint26
                0x00000000001118b1                _Xint27
                0x00000000001118bf                _Xint28
                0x00000000001118cd                _Xint29
                0x00000000001118db                _Xint30
                0x00000000001118e9                _Xint31
                0x00000000001118f7                _Xint32
                0x0000000000111905                _Xint33
                0x0000000000111913                _Xint34
                0x0000000000111921                _Xint35
                0x000000000011192f                _Xint36
                0x000000000011193d                _Xint37
                0x000000000011194b                _Xint38
                0x0000000000111959                _Xint39
                0x0000000000111967                _Xint40
                0x0000000000111975                _Xint41
                0x0000000000111983                _Xint42
                0x0000000000111991                _Xint43
                0x000000000011199f                _Xint44
                0x00000000001119ad                _Xint45
                0x00000000001119bb                _Xint46
                0x00000000001119c9                defevec
 .text          0x0000000000111a89        0xf binaries/ttydispatch.o
                0x0000000000111a89                ttydispatch
 .text          0x0000000000111a98       0x13 binaries/ethdispatch.o
                0x0000000000111a98                ethdispatch
 *(.rodata .rodata.*)
 .rodata.str1.1
                0x0000000000111aab       0x54 binaries/ascdate.o
 *fill*         0x0000000000111aff        0x1 
 .rodata.str1.4
                0x0000000000111b00       0x22 binaries/ascdate.o
 .rodata.str1.1
                0x0000000000111b22       0x5f binaries/conf.o
 *fill*         0x0000000000111b81        0x3 
 .rodata.str1.4
                0x0000000000111b84       0x2d binaries/cpuintensive.o
 .rodata.str1.1
                0x0000000000111bb1        0xd binaries/cpuintensive.o
 *fill*         0x0000000000111bbe        0x2 
 .rodata.str1.4
                0x0000000000111bc0       0x4f binaries/early_imr.o
 .rodata        0x0000000000111c0f       0x30 binaries/early_imr.o
 .rodata.str1.1
                0x0000000000111c3f      0x20c binaries/evec.o
 *fill*         0x0000000000111e4b        0x1 
 .rodata.str1.4
                0x0000000000111e4c       0x23 binaries/evec.o
 .rodata.str1.1
                0x0000000000111e6f        0xb binaries/getutime.o
 *fill*         0x0000000000111e7a        0x2 
 .rodata.str1.4
                0x0000000000111e7c       0x54 binaries/getutime.o
 .rodata.str1.1
                0x0000000000111ed0       0xbd binaries/initialize.o
                                         0xc1 (size before relaxing)
 *fill*         0x0000000000111f8d        0x3 
 .rodata.str1.4
                0x0000000000111f90      0x23f binaries/initialize.o
 *fill*         0x00000000001121cf        0x1 
 .rodata.str1.4
                0x00000000001121d0       0x53 binaries/iointensive.o
 *fill*         0x0000000000112223        0x1 
 .rodata        0x0000000000112224       0x20 binaries/kill.o
 .rodata.str1.4
                0x0000000000112244       0x24 binaries/lab0app1.o
 .rodata.str1.1
                0x0000000000112268       0x14 binaries/lab0app1.o
 .rodata.str1.1
                0x000000000011227c       0x2a binaries/lab0app2.o
 *fill*         0x00000000001122a6        0x2 
 .rodata.str1.4
                0x00000000001122a8      0x1f7 binaries/main.o
 .rodata.str1.1
                0x000000000011249f       0x62 binaries/main.o
                                         0x65 (size before relaxing)
 *fill*         0x0000000000112501        0x3 
 .rodata.str1.4
                0x0000000000112504       0x23 binaries/meminit.o
 .rodata.str1.1
                0x0000000000112527       0x1b binaries/meminit.o
 .rodata.str1.1
                0x0000000000112542       0x1c binaries/myattacker.o
 *fill*         0x000000000011255e        0x2 
 .rodata.str1.4
                0x0000000000112560       0x2d binaries/myattackermalware.o
 *fill*         0x000000000011258d        0x3 
 .rodata.str1.4
                0x0000000000112590       0x5f binaries/myvictim.o
 .rodata.str1.1
                0x0000000000000000       0x1c binaries/myvictim.o
                                          0x2 (size before relaxing)
 .rodata.str1.1
                0x00000000001125ef        0xf binaries/panic.o
 *fill*         0x00000000001125fe        0x2 
 .rodata.str1.4
                0x0000000000112600      0x14e binaries/printsegaddress.o
 .rodata.str1.1
                0x000000000011274e       0xe7 binaries/printsegaddress.o
 .rodata.str1.1
                0x0000000000112835       0x1c binaries/ptinit.o
 *fill*         0x0000000000112851        0x3 
 .rodata.str1.4
                0x0000000000112854       0x25 binaries/ptsend.o
 .rodata.str1.1
                0x0000000000112879       0x22 binaries/quark_pdat.o
 .rodata.str1.1
                0x000000000011289b       0x58 binaries/stackdepth.o
                                         0x5a (size before relaxing)
 *fill*         0x00000000001128f3        0x1 
 .rodata.str1.4
                0x00000000001128f4       0x63 binaries/stacktrace.o
 .rodata.str1.1
                0x0000000000112957       0x54 binaries/stacktrace.o
 *fill*         0x00000000001129ab        0x1 
 .rodata.str1.4
                0x00000000001129ac       0x27 binaries/xdone.o
 *fill*         0x00000000001129d3        0xd 
 .rodata        0x00000000001129e0       0x81 binaries/ctype_.o
                0x00000000001129e0                _ctype_
 .rodata.str1.1
                0x0000000000112a61       0x29 binaries/doprnt.o
 *fill*         0x0000000000112a8a        0x2 
 .rodata        0x0000000000112a8c       0xc4 binaries/doprnt.o
 .rodata        0x0000000000112b50       0x98 binaries/doscan.o
 .rodata.str1.1
                0x0000000000000000       0x29 binaries/fdoprnt.o
 .rodata        0x0000000000112be8       0x84 binaries/fdoprnt.o
 .rodata        0x0000000000112c6c       0x20 binaries/ttycontrol.o
 .rodata.str1.4
                0x0000000000112c8c       0x4c binaries/naminit.o
 .rodata.str1.1
                0x0000000000112cd8       0x32 binaries/naminit.o
                                         0x35 (size before relaxing)
 .rodata.str1.1
                0x0000000000112d0a       0x15 binaries/ethinit.o
 *fill*         0x0000000000112d1f        0x1 
 .rodata.str1.4
                0x0000000000112d20       0x2e binaries/ethinit.o
 *fill*         0x0000000000112d4e        0x2 
 .rodata.str1.4
                0x0000000000112d50       0x2c binaries/rdsbufalloc.o
 .rodata.str1.4
                0x0000000000112d7c       0x76 binaries/rdscomm.o
 *fill*         0x0000000000112df2        0x2 
 .rodata.str1.4
                0x0000000000112df4       0x48 binaries/rdscontrol.o
 .rodata.str1.4
                0x0000000000112e3c       0x7e binaries/rdsinit.o
 .rodata.str1.1
                0x0000000000112eba       0x18 binaries/rdsinit.o
 *fill*         0x0000000000112ed2        0x2 
 .rodata.str1.4
                0x0000000000112ed4       0x22 binaries/rdsopen.o
 *fill*         0x0000000000112ef6        0x2 
 .rodata.str1.4
                0x0000000000112ef8       0x4d binaries/rdsprocess.o
 .rodata.str1.1
                0x0000000000112f45        0x9 binaries/raminit.o
 .rodata.str1.1
                0x0000000000112f4e       0x13 binaries/lfdballoc.o
 *fill*         0x0000000000112f61        0x3 
 .rodata.str1.4
                0x0000000000112f64       0x23 binaries/lfdballoc.o
 .rodata.str1.1
                0x0000000000112f87       0x14 binaries/lfiballoc.o
 *fill*         0x0000000000112f9b        0x1 
 .rodata.str1.4
                0x0000000000112f9c       0x23 binaries/lflcontrol.o
 .rodata.str1.1
                0x0000000000112fbf       0x64 binaries/lfsckfmt.o
 *fill*         0x0000000000113023        0x1 
 .rodata.str1.4
                0x0000000000113024       0x51 binaries/lfsckfmt.o
 *fill*         0x0000000000113075        0x3 
 .rodata.str1.4
                0x0000000000113078       0x21 binaries/rflread.o
 .rodata.str1.4
                0x0000000000000000       0x21 binaries/rflwrite.o
 *fill*         0x0000000000113099        0x3 
 .rodata.str1.4
                0x000000000011309c       0x75 binaries/rfscomm.o
 *fill*         0x0000000000113111        0x3 
 .rodata.str1.4
                0x0000000000113114       0x23 binaries/rfscontrol.o
 *fill*         0x0000000000113137        0x1 
 .rodata        0x0000000000113138       0x18 binaries/rfscontrol.o
 .rodata.str1.1
                0x0000000000000000       0x10 binaries/rfsinit.o
 .rodata.str1.4
                0x0000000000113150       0x57 binaries/rfsinit.o
 *fill*         0x00000000001131a7        0x1 
 .rodata.str1.4
                0x00000000001131a8       0x2a binaries/rfsndmsg.o
 .rodata.str1.4
                0x0000000000000000       0x22 binaries/rfsopen.o
 .rodata.str1.1
                0x00000000001131d2       0x19 binaries/arp.o
 *fill*         0x00000000001131eb        0x1 
 .rodata.str1.4
                0x00000000001131ec       0x21 binaries/arp.o
 *fill*         0x000000000011320d        0x3 
 .rodata.str1.4
                0x0000000000113210       0xa6 binaries/dhcp.o
 .rodata.str1.1
                0x00000000001132b6       0x4a binaries/dhcp.o
 .rodata.str1.1
                0x0000000000113300       0x5a binaries/hexdump.o
                                         0x61 (size before relaxing)
 *fill*         0x000000000011335a        0x2 
 .rodata.str1.4
                0x000000000011335c       0x67 binaries/hexdump.o
 *fill*         0x00000000001133c3        0x1 
 .rodata.str1.4
                0x00000000001133c4       0x29 binaries/icmp.o
 .rodata.str1.1
                0x00000000001133ed       0x4e binaries/ip.o
 *fill*         0x000000000011343b        0x1 
 .rodata.str1.4
                0x000000000011343c       0x20 binaries/ip.o
 .rodata.str1.4
                0x000000000011345c       0x28 binaries/net.o
 .rodata.str1.1
                0x0000000000113484       0x27 binaries/net.o
 *fill*         0x00000000001134ab        0x1 
 .rodata.str1.4
                0x00000000001134ac       0xcf binaries/netstart.o
 .rodata.str1.1
                0x000000000011357b      0x141 binaries/pdump.o
                                        0x14b (size before relaxing)
 .rodata.str1.4
                0x00000000001136bc      0x126 binaries/pdump.o
 *fill*         0x00000000001137e2        0x2 
 .rodata.str1.4
                0x00000000001137e4      0x148 binaries/tftp.o
 .rodata.str1.1
                0x000000000011392c        0x6 binaries/tftp.o
                                          0xa (size before relaxing)
 .rodata.str1.1
                0x0000000000113932       0xed binaries/shell.o
                                        0x109 (size before relaxing)
 *fill*         0x0000000000113a1f        0x1 
 .rodata.str1.4
                0x0000000000113a20      0x1c4 binaries/shell.o
 *fill*         0x0000000000113be4       0x1c 
 .rodata        0x0000000000113c00      0x108 binaries/shell.o
                0x0000000000113c00                cmdtab
 .rodata.str1.1
                0x0000000000113d08       0x26 binaries/xsh_argecho.o
                                         0x28 (size before relaxing)
 .rodata.str1.1
                0x0000000000113d2e       0x70 binaries/xsh_arp.o
                                         0x72 (size before relaxing)
 *fill*         0x0000000000113d9e        0x2 
 .rodata.str1.4
                0x0000000000113da0       0xb4 binaries/xsh_arp.o
 .rodata.str1.1
                0x0000000000113e54       0x2d binaries/xsh_cat.o
                                         0x4f (size before relaxing)
 *fill*         0x0000000000113e81        0x3 
 .rodata.str1.4
                0x0000000000113e84       0x52 binaries/xsh_cat.o
                                         0x79 (size before relaxing)
 .rodata.str1.1
                0x0000000000113ed6       0x3d binaries/xsh_cd.o
                                         0x5c (size before relaxing)
 *fill*         0x0000000000113f13        0x1 
 .rodata.str1.4
                0x0000000000113f14      0x10f binaries/xsh_cd.o
 .rodata.str1.1
                0x0000000000114023       0x15 binaries/xsh_clear.o
 .rodata.str1.1
                0x0000000000114038       0x22 binaries/xsh_date.o
                                         0x5f (size before relaxing)
 *fill*         0x000000000011405a        0x2 
 .rodata.str1.4
                0x000000000011405c      0x13b binaries/xsh_date.o
                                        0x163 (size before relaxing)
 .rodata.str1.1
                0x0000000000114197       0x5d binaries/xsh_devdump.o
 .rodata.str1.1
                0x00000000001141f4        0x4 binaries/xsh_echo.o
                                          0x9 (size before relaxing)
 .rodata.str1.1
                0x00000000001141f8       0x65 binaries/xsh_help.o
                                         0xa3 (size before relaxing)
 *fill*         0x000000000011425d        0x3 
 .rodata.str1.4
                0x0000000000114260       0x7c binaries/xsh_help.o
                                         0xc6 (size before relaxing)
 .rodata.str1.1
                0x00000000001142dc       0x9c binaries/xsh_ipaddr.o
                                         0xf8 (size before relaxing)
 .rodata.str1.4
                0x0000000000114378       0x4d binaries/xsh_ipaddr.o
                                         0x99 (size before relaxing)
 .rodata.str1.1
                0x00000000001143c5       0x78 binaries/xsh_kill.o
                                         0x97 (size before relaxing)
 *fill*         0x000000000011443d        0x3 
 .rodata.str1.4
                0x0000000000114440       0x4a binaries/xsh_kill.o
                                         0x96 (size before relaxing)
 .rodata.str1.1
                0x000000000011448a       0x84 binaries/xsh_memdump.o
                                         0xa8 (size before relaxing)
 *fill*         0x000000000011450e        0x2 
 .rodata.str1.4
                0x0000000000114510      0x15a binaries/xsh_memdump.o
                                        0x1aa (size before relaxing)
 .rodata.str1.1
                0x000000000011466a       0x40 binaries/xsh_memstat.o
                                         0x79 (size before relaxing)
 *fill*         0x00000000001146aa        0x2 
 .rodata.str1.4
                0x00000000001146ac      0x163 binaries/xsh_memstat.o
                                        0x1af (size before relaxing)
 .rodata.str1.1
                0x000000000011480f       0x90 binaries/xsh_ping.o
                                         0xaf (size before relaxing)
 *fill*         0x000000000011489f        0x1 
 .rodata.str1.4
                0x00000000001148a0       0x77 binaries/xsh_ping.o
                                         0xc6 (size before relaxing)
 .rodata.str1.1
                0x0000000000114917       0x74 binaries/xsh_ps.o
                                         0xd5 (size before relaxing)
 *fill*         0x000000000011498b        0x1 
 .rodata.str1.4
                0x000000000011498c       0x80 binaries/xsh_ps.o
                                         0xd0 (size before relaxing)
 *fill*         0x0000000000114a0c       0x14 
 .rodata        0x0000000000114a20       0x20 binaries/xsh_ps.o
 .rodata.str1.1
                0x0000000000114a40       0x31 binaries/xsh_sleep.o
                                         0x72 (size before relaxing)
 *fill*         0x0000000000114a71        0x3 
 .rodata.str1.4
                0x0000000000114a74       0x2a binaries/xsh_sleep.o
                                         0x7a (size before relaxing)
 .rodata.str1.1
                0x0000000000114a9e       0x6b binaries/xsh_udpdump.o
                                         0xd2 (size before relaxing)
 *fill*         0x0000000000114b09        0x3 
 .rodata.str1.4
                0x0000000000114b0c       0x94 binaries/xsh_udpdump.o
                                         0xe4 (size before relaxing)
 .rodata.str1.1
                0x0000000000114ba0       0xdb binaries/xsh_udpecho.o
                                         0xfa (size before relaxing)
 *fill*         0x0000000000114c7b        0x1 
 .rodata.str1.4
                0x0000000000114c7c       0xc7 binaries/xsh_udpecho.o
                                        0x116 (size before relaxing)
 .rodata.str1.1
                0x0000000000114d43       0x66 binaries/xsh_udpeserver.o
                                         0x8f (size before relaxing)
 *fill*         0x0000000000114da9        0x3 
 .rodata.str1.4
                0x0000000000114dac       0x29 binaries/xsh_udpeserver.o
                                         0x9f (size before relaxing)
 .rodata.str1.1
                0x0000000000114dd5       0x49 binaries/xsh_uptime.o
                                         0x8c (size before relaxing)
 *fill*         0x0000000000114e1e        0x2 
 .rodata.str1.4
                0x0000000000114e20       0x28 binaries/xsh_uptime.o
                                         0x76 (size before relaxing)
                0x0000000000114e48                etext = ABSOLUTE (.)
                0x0000000000115000                . = ALIGN (0x1000)
 *fill*         0x0000000000114e48      0x1b8 

.eh_frame       0x0000000000115000     0x3118
 .eh_frame      0x0000000000115000       0x48 binaries/ascdate.o
 .eh_frame      0x0000000000115048       0x20 binaries/bufinit.o
                                         0x38 (size before relaxing)
 .eh_frame      0x0000000000115068       0x2c binaries/chprio.o
                                         0x44 (size before relaxing)
 .eh_frame      0x0000000000115094       0x20 binaries/clkhandler.o
                                         0x38 (size before relaxing)
 .eh_frame      0x00000000001150b4       0x20 binaries/clkinit.o
                                         0x38 (size before relaxing)
 .eh_frame      0x00000000001150d4       0x28 binaries/close.o
                                         0x40 (size before relaxing)
 .eh_frame      0x00000000001150fc       0x28 binaries/control.o
                                         0x40 (size before relaxing)
 .eh_frame      0x0000000000115124       0x2c binaries/cpuintensive.o
                                         0x44 (size before relaxing)
 .eh_frame      0x0000000000115150       0x30 binaries/create.o
                                         0x48 (size before relaxing)
 .eh_frame      0x0000000000115180       0x94 binaries/early_imr.o
                                         0xac (size before relaxing)
 .eh_frame      0x0000000000115214       0x9c binaries/evec.o
                                         0xb4 (size before relaxing)
 .eh_frame      0x00000000001152b0       0x28 binaries/freebuf.o
                                         0x40 (size before relaxing)
 .eh_frame      0x00000000001152d8       0x2c binaries/freemem.o
                                         0x44 (size before relaxing)
 .eh_frame      0x0000000000115304       0x2c binaries/getbuf.o
                                         0x44 (size before relaxing)
 .eh_frame      0x0000000000115330       0x28 binaries/getc.o
                                         0x40 (size before relaxing)
 .eh_frame      0x0000000000115358       0x2c binaries/getdev.o
                                         0x44 (size before relaxing)
 .eh_frame      0x0000000000115384       0x64 binaries/getitem.o
                                         0x7c (size before relaxing)
 .eh_frame      0x00000000001153e8       0x28 binaries/getmem.o
                                         0x40 (size before relaxing)
 .eh_frame      0x0000000000115410       0x20 binaries/getpid.o
                                         0x38 (size before relaxing)
 .eh_frame      0x0000000000115430       0x24 binaries/getprio.o
                                         0x3c (size before relaxing)
 .eh_frame      0x0000000000115454       0x2c binaries/getstk.o
                                         0x44 (size before relaxing)
 .eh_frame      0x0000000000115480       0x20 binaries/gettime.o
                                         0x38 (size before relaxing)
 .eh_frame      0x00000000001154a0       0x28 binaries/getutime.o
                                         0x40 (size before relaxing)
 .eh_frame      0x00000000001154c8       0x28 binaries/init.o
                                         0x40 (size before relaxing)
 .eh_frame      0x00000000001154f0       0x5c binaries/initialize.o
                                         0x74 (size before relaxing)
 .eh_frame      0x000000000011554c       0x28 binaries/insert.o
                                         0x40 (size before relaxing)
 .eh_frame      0x0000000000115574       0x2c binaries/insertd.o
                                         0x44 (size before relaxing)
 .eh_frame      0x00000000001155a0       0x20 binaries/ioerr.o
                                         0x38 (size before relaxing)
 .eh_frame      0x00000000001155c0       0x2c binaries/iointensive.o
                                         0x44 (size before relaxing)
 .eh_frame      0x00000000001155ec       0x20 binaries/ionull.o
                                         0x38 (size before relaxing)
 .eh_frame      0x000000000011560c       0x30 binaries/kill.o
                                         0x48 (size before relaxing)
 .eh_frame      0x000000000011563c       0x80 binaries/kprintf.o
                                         0x98 (size before relaxing)
 .eh_frame      0x00000000001156bc       0x20 binaries/lab0app1.o
                                         0x38 (size before relaxing)
 .eh_frame      0x00000000001156dc       0x24 binaries/lab0app2.o
                                         0x3c (size before relaxing)
 .eh_frame      0x0000000000115700       0x58 binaries/main.o
                                         0x70 (size before relaxing)
 .eh_frame      0x0000000000115758       0x44 binaries/mark.o
                                         0x5c (size before relaxing)
 .eh_frame      0x000000000011579c       0x50 binaries/meminit.o
                                         0x68 (size before relaxing)
 .eh_frame      0x00000000001157ec       0x30 binaries/mkbufpool.o
                                         0x48 (size before relaxing)
 .eh_frame      0x000000000011581c       0x28 binaries/myattacker.o
                                         0x40 (size before relaxing)
 .eh_frame      0x0000000000115844       0x20 binaries/myattackermalware.o
                                         0x38 (size before relaxing)
 .eh_frame      0x0000000000115864       0x60 binaries/myvictim.o
                                         0x78 (size before relaxing)
 .eh_frame      0x00000000001158c4       0x20 binaries/newqueue.o
                                         0x38 (size before relaxing)
 .eh_frame      0x00000000001158e4       0x28 binaries/open.o
                                         0x40 (size before relaxing)
 .eh_frame      0x000000000011590c       0x1c binaries/panic.o
                                         0x34 (size before relaxing)
 .eh_frame      0x0000000000115928      0x12c binaries/pci.o
                                        0x144 (size before relaxing)
 .eh_frame      0x0000000000115a54       0x20 binaries/platinit.o
                                         0x38 (size before relaxing)
 .eh_frame      0x0000000000115a74       0x20 binaries/printsegaddress.o
                                         0x38 (size before relaxing)
 .eh_frame      0x0000000000115a94       0x2c binaries/ptclear.o
                                         0x44 (size before relaxing)
 .eh_frame      0x0000000000115ac0       0x2c binaries/ptcount.o
                                         0x44 (size before relaxing)
 .eh_frame      0x0000000000115aec       0x2c binaries/ptcreate.o
                                         0x44 (size before relaxing)
 .eh_frame      0x0000000000115b18       0x28 binaries/ptdelete.o
                                         0x40 (size before relaxing)
 .eh_frame      0x0000000000115b40       0x28 binaries/ptinit.o
                                         0x40 (size before relaxing)
 .eh_frame      0x0000000000115b68       0x2c binaries/ptrecv.o
                                         0x44 (size before relaxing)
 .eh_frame      0x0000000000115b94       0x28 binaries/ptreset.o
                                         0x40 (size before relaxing)
 .eh_frame      0x0000000000115bbc       0x2c binaries/ptsend.o
                                         0x44 (size before relaxing)
 .eh_frame      0x0000000000115be8       0x2c binaries/putc.o
                                         0x44 (size before relaxing)
 .eh_frame      0x0000000000115c14       0x24 binaries/quark_irq.o
                                         0x3c (size before relaxing)
 .eh_frame      0x0000000000115c38       0x54 binaries/quark_pdat.o
                                         0x6c (size before relaxing)
 .eh_frame      0x0000000000115c8c       0x44 binaries/queue.o
                                         0x5c (size before relaxing)
 .eh_frame      0x0000000000115cd0       0x28 binaries/read.o
                                         0x40 (size before relaxing)
 .eh_frame      0x0000000000115cf8       0x20 binaries/ready.o
                                         0x38 (size before relaxing)
 .eh_frame      0x0000000000115d18       0x2c binaries/receive.o
                                         0x44 (size before relaxing)
 .eh_frame      0x0000000000115d44       0x24 binaries/recvclr.o
                                         0x3c (size before relaxing)
 .eh_frame      0x0000000000115d68       0x2c binaries/recvtime.o
                                         0x44 (size before relaxing)
 .eh_frame      0x0000000000115d94       0x4c binaries/resched.o
                                         0x64 (size before relaxing)
 .eh_frame      0x0000000000115de0       0x2c binaries/resume.o
                                         0x44 (size before relaxing)
 .eh_frame      0x0000000000115e0c       0x28 binaries/seek.o
                                         0x40 (size before relaxing)
 .eh_frame      0x0000000000115e34       0x24 binaries/semcount.o
                                         0x3c (size before relaxing)
 .eh_frame      0x0000000000115e58       0x2c binaries/semcreate.o
                                         0x44 (size before relaxing)
 .eh_frame      0x0000000000115e84       0x28 binaries/semdelete.o
                                         0x40 (size before relaxing)
 .eh_frame      0x0000000000115eac       0x2c binaries/semreset.o
                                         0x44 (size before relaxing)
 .eh_frame      0x0000000000115ed8       0x28 binaries/send.o
                                         0x40 (size before relaxing)
 .eh_frame      0x0000000000115f00       0x28 binaries/signal.o
                                         0x40 (size before relaxing)
 .eh_frame      0x0000000000115f28       0x2c binaries/signaln.o
                                         0x44 (size before relaxing)
 .eh_frame      0x0000000000115f54       0x48 binaries/sleep.o
                                         0x60 (size before relaxing)
 .eh_frame      0x0000000000115f9c       0x2c binaries/stackdepth.o
                                         0x44 (size before relaxing)
 .eh_frame      0x0000000000115fc8       0x30 binaries/stacktrace.o
                                         0x48 (size before relaxing)
 .eh_frame      0x0000000000115ff8       0x2c binaries/suspend.o
                                         0x44 (size before relaxing)
 .eh_frame      0x0000000000116024       0x28 binaries/unsleep.o
                                         0x40 (size before relaxing)
 .eh_frame      0x000000000011604c       0x20 binaries/userret.o
                                         0x38 (size before relaxing)
 .eh_frame      0x000000000011606c       0x2c binaries/wait.o
                                         0x44 (size before relaxing)
 .eh_frame      0x0000000000116098       0x20 binaries/wakeup.o
                                         0x38 (size before relaxing)
 .eh_frame      0x00000000001160b8       0x28 binaries/write.o
                                         0x40 (size before relaxing)
 .eh_frame      0x00000000001160e0       0x20 binaries/xdone.o
                                         0x38 (size before relaxing)
 .eh_frame      0x0000000000116100       0x24 binaries/yield.o
                                         0x3c (size before relaxing)
 .eh_frame      0x0000000000116124       0x20 binaries/abs.o
                                         0x38 (size before relaxing)
 .eh_frame      0x0000000000116144       0x28 binaries/atoi.o
                                         0x40 (size before relaxing)
 .eh_frame      0x000000000011616c       0x28 binaries/atol.o
                                         0x40 (size before relaxing)
 .eh_frame      0x0000000000116194       0x20 binaries/bzero.o
                                         0x38 (size before relaxing)
 .eh_frame      0x00000000001161b4       0xac binaries/doprnt.o
                                         0xc4 (size before relaxing)
 .eh_frame      0x0000000000116260       0x30 binaries/doscan.o
                                         0x48 (size before relaxing)
 .eh_frame      0x0000000000116290       0x5c binaries/fdoprnt.o
                                         0x74 (size before relaxing)
 .eh_frame      0x00000000001162ec       0x20 binaries/fgetc.o
                                         0x38 (size before relaxing)
 .eh_frame      0x000000000011630c       0x2c binaries/fgets.o
                                         0x44 (size before relaxing)
 .eh_frame      0x0000000000116338       0x20 binaries/fprintf.o
                                         0x38 (size before relaxing)
 .eh_frame      0x0000000000116358       0x20 binaries/fputc.o
                                         0x38 (size before relaxing)
 .eh_frame      0x0000000000116378       0x28 binaries/fputs.o
                                         0x40 (size before relaxing)
 .eh_frame      0x00000000001163a0       0x64 binaries/fscanf.o
                                         0x7c (size before relaxing)
 .eh_frame      0x0000000000116404       0x20 binaries/getchar.o
                                         0x38 (size before relaxing)
 .eh_frame      0x0000000000116424       0x20 binaries/labs.o
                                         0x38 (size before relaxing)
 .eh_frame      0x0000000000116444       0x20 binaries/memchr.o
                                         0x38 (size before relaxing)
 .eh_frame      0x0000000000116464       0x28 binaries/memcmp.o
                                         0x40 (size before relaxing)
 .eh_frame      0x000000000011648c       0x28 binaries/memcpy.o
                                         0x40 (size before relaxing)
 .eh_frame      0x00000000001164b4       0x24 binaries/memset.o
                                         0x3c (size before relaxing)
 .eh_frame      0x00000000001164d8       0x20 binaries/printf.o
                                         0x38 (size before relaxing)
 .eh_frame      0x00000000001164f8       0x20 binaries/putchar.o
                                         0x38 (size before relaxing)
 .eh_frame      0x0000000000116518       0xa4 binaries/qsort.o
                                         0xbc (size before relaxing)
 .eh_frame      0x00000000001165bc       0x40 binaries/rand.o
                                         0x58 (size before relaxing)
 .eh_frame      0x00000000001165fc       0x48 binaries/sprintf.o
                                         0x60 (size before relaxing)
 .eh_frame      0x0000000000116644       0x60 binaries/sscanf.o
                                         0x78 (size before relaxing)
 .eh_frame      0x00000000001166a4       0x24 binaries/strchr.o
                                         0x3c (size before relaxing)
 .eh_frame      0x00000000001166c8       0x24 binaries/strcmp.o
                                         0x3c (size before relaxing)
 .eh_frame      0x00000000001166ec       0x20 binaries/strcpy.o
                                         0x38 (size before relaxing)
 .eh_frame      0x000000000011670c       0x20 binaries/strlen.o
                                         0x38 (size before relaxing)
 .eh_frame      0x000000000011672c       0x2c binaries/strncat.o
                                         0x44 (size before relaxing)
 .eh_frame      0x0000000000116758       0x24 binaries/strncmp.o
                                         0x3c (size before relaxing)
 .eh_frame      0x000000000011677c       0x2c binaries/strncpy.o
                                         0x44 (size before relaxing)
 .eh_frame      0x00000000001167a8       0x20 binaries/strnlen.o
                                         0x38 (size before relaxing)
 .eh_frame      0x00000000001167c8       0x24 binaries/strrchr.o
                                         0x3c (size before relaxing)
 .eh_frame      0x00000000001167ec       0x2c binaries/strstr.o
                                         0x44 (size before relaxing)
 .eh_frame      0x0000000000116818       0x28 binaries/ttycontrol.o
                                         0x40 (size before relaxing)
 .eh_frame      0x0000000000116840       0x28 binaries/ttygetc.o
                                         0x40 (size before relaxing)
 .eh_frame      0x0000000000116868       0x84 binaries/ttyhandle_in.o
                                         0x9c (size before relaxing)
 .eh_frame      0x00000000001168ec       0x30 binaries/ttyhandle_out.o
                                         0x48 (size before relaxing)
 .eh_frame      0x000000000011691c       0x28 binaries/ttyhandler.o
                                         0x40 (size before relaxing)
 .eh_frame      0x0000000000116944       0x2c binaries/ttyinit.o
                                         0x44 (size before relaxing)
 .eh_frame      0x0000000000116970       0x20 binaries/ttykickout.o
                                         0x38 (size before relaxing)
 .eh_frame      0x0000000000116990       0x2c binaries/ttyputc.o
                                         0x44 (size before relaxing)
 .eh_frame      0x00000000001169bc       0x2c binaries/ttyread.o
                                         0x44 (size before relaxing)
 .eh_frame      0x00000000001169e8       0x2c binaries/ttywrite.o
                                         0x44 (size before relaxing)
 .eh_frame      0x0000000000116a14       0x4c binaries/mount.o
                                         0x64 (size before relaxing)
 .eh_frame      0x0000000000116a60       0x30 binaries/naminit.o
                                         0x48 (size before relaxing)
 .eh_frame      0x0000000000116a90       0x84 binaries/nammap.o
                                         0x9c (size before relaxing)
 .eh_frame      0x0000000000116b14       0x20 binaries/namopen.o
                                         0x38 (size before relaxing)
 .eh_frame      0x0000000000116b34       0x2c binaries/colon2mac.o
                                         0x44 (size before relaxing)
 .eh_frame      0x0000000000116b60       0x20 binaries/ethcontrol.o
                                         0x38 (size before relaxing)
 .eh_frame      0x0000000000116b80       0x2c binaries/ethhandler.o
                                         0x44 (size before relaxing)
 .eh_frame      0x0000000000116bac       0x98 binaries/ethinit.o
                                         0xb0 (size before relaxing)
 .eh_frame      0x0000000000116c44       0x54 binaries/ethmcast.o
                                         0x6c (size before relaxing)
 .eh_frame      0x0000000000116c98       0x30 binaries/ethread.o
                                         0x48 (size before relaxing)
 .eh_frame      0x0000000000116cc8       0x2c binaries/ethwrite.o
                                         0x44 (size before relaxing)
 .eh_frame      0x0000000000116cf4       0x24 binaries/rdsbufalloc.o
                                         0x3c (size before relaxing)
 .eh_frame      0x0000000000116d18       0x2c binaries/rdsclose.o
                                         0x44 (size before relaxing)
 .eh_frame      0x0000000000116d44       0x30 binaries/rdscomm.o
                                         0x48 (size before relaxing)
 .eh_frame      0x0000000000116d74       0x2c binaries/rdscontrol.o
                                         0x44 (size before relaxing)
 .eh_frame      0x0000000000116da0       0x30 binaries/rdsinit.o
                                         0x48 (size before relaxing)
 .eh_frame      0x0000000000116dd0       0x30 binaries/rdsopen.o
                                         0x48 (size before relaxing)
 .eh_frame      0x0000000000116e00       0x20 binaries/rdsprocess.o
                                         0x38 (size before relaxing)
 .eh_frame      0x0000000000116e20       0x30 binaries/rdsread.o
                                         0x48 (size before relaxing)
 .eh_frame      0x0000000000116e50       0x30 binaries/rdswrite.o
                                         0x48 (size before relaxing)
 .eh_frame      0x0000000000116e80       0x20 binaries/ramclose.o
                                         0x38 (size before relaxing)
 .eh_frame      0x0000000000116ea0       0x20 binaries/raminit.o
                                         0x38 (size before relaxing)
 .eh_frame      0x0000000000116ec0       0x20 binaries/ramopen.o
                                         0x38 (size before relaxing)
 .eh_frame      0x0000000000116ee0       0x20 binaries/ramread.o
                                         0x38 (size before relaxing)
 .eh_frame      0x0000000000116f00       0x20 binaries/ramwrite.o
                                         0x38 (size before relaxing)
 .eh_frame      0x0000000000116f20       0x28 binaries/lfdballoc.o
                                         0x40 (size before relaxing)
 .eh_frame      0x0000000000116f48       0x24 binaries/lfdbfree.o
                                         0x3c (size before relaxing)
 .eh_frame      0x0000000000116f6c       0x24 binaries/lfflush.o
                                         0x3c (size before relaxing)
 .eh_frame      0x0000000000116f90       0x20 binaries/lfgetmode.o
                                         0x38 (size before relaxing)
 .eh_frame      0x0000000000116fb0       0x24 binaries/lfiballoc.o
                                         0x3c (size before relaxing)
 .eh_frame      0x0000000000116fd4       0x20 binaries/lfibclear.o
                                         0x38 (size before relaxing)
 .eh_frame      0x0000000000116ff4       0x2c binaries/lfibget.o
                                         0x44 (size before relaxing)
 .eh_frame      0x0000000000117020       0x2c binaries/lfibput.o
                                         0x44 (size before relaxing)
 .eh_frame      0x000000000011704c       0x28 binaries/lflclose.o
                                         0x40 (size before relaxing)
 .eh_frame      0x0000000000117074       0x28 binaries/lflcontrol.o
                                         0x40 (size before relaxing)
 .eh_frame      0x000000000011709c       0x28 binaries/lflgetc.o
                                         0x40 (size before relaxing)
 .eh_frame      0x00000000001170c4       0x24 binaries/lflinit.o
                                         0x3c (size before relaxing)
 .eh_frame      0x00000000001170e8       0x2c binaries/lflputc.o
                                         0x44 (size before relaxing)
 .eh_frame      0x0000000000117114       0x2c binaries/lflread.o
                                         0x44 (size before relaxing)
 .eh_frame      0x0000000000117140       0x2c binaries/lflseek.o
                                         0x44 (size before relaxing)
 .eh_frame      0x000000000011716c       0x2c binaries/lflwrite.o
                                         0x44 (size before relaxing)
 .eh_frame      0x0000000000117198       0x30 binaries/lfsckfmt.o
                                         0x48 (size before relaxing)
 .eh_frame      0x00000000001171c8       0x30 binaries/lfscreate.o
                                         0x48 (size before relaxing)
 .eh_frame      0x00000000001171f8       0x30 binaries/lfsetup.o
                                         0x48 (size before relaxing)
 .eh_frame      0x0000000000117228       0x20 binaries/lfsinit.o
                                         0x38 (size before relaxing)
 .eh_frame      0x0000000000117248       0x30 binaries/lfsopen.o
                                         0x48 (size before relaxing)
 .eh_frame      0x0000000000117278       0x30 binaries/lftruncate.o
                                         0x48 (size before relaxing)
 .eh_frame      0x00000000001172a8       0x20 binaries/rflclose.o
                                         0x38 (size before relaxing)
 .eh_frame      0x00000000001172c8       0x20 binaries/rflgetc.o
                                         0x38 (size before relaxing)
 .eh_frame      0x00000000001172e8       0x20 binaries/rflinit.o
                                         0x38 (size before relaxing)
 .eh_frame      0x0000000000117308       0x20 binaries/rflputc.o
                                         0x38 (size before relaxing)
 .eh_frame      0x0000000000117328       0x30 binaries/rflread.o
                                         0x48 (size before relaxing)
 .eh_frame      0x0000000000117358       0x20 binaries/rflseek.o
                                         0x38 (size before relaxing)
 .eh_frame      0x0000000000117378       0x30 binaries/rflwrite.o
                                         0x48 (size before relaxing)
 .eh_frame      0x00000000001173a8       0x30 binaries/rfscomm.o
                                         0x48 (size before relaxing)
 .eh_frame      0x00000000001173d8       0x2c binaries/rfscontrol.o
                                         0x44 (size before relaxing)
 .eh_frame      0x0000000000117404       0x20 binaries/rfsgetmode.o
                                         0x38 (size before relaxing)
 .eh_frame      0x0000000000117424       0x20 binaries/rfsinit.o
                                         0x38 (size before relaxing)
 .eh_frame      0x0000000000117444       0x20 binaries/rfsndmsg.o
                                         0x38 (size before relaxing)
 .eh_frame      0x0000000000117464       0x2c binaries/rfsopen.o
                                         0x44 (size before relaxing)
 .eh_frame      0x0000000000117490       0xec binaries/arp.o
                                        0x104 (size before relaxing)
 .eh_frame      0x000000000011757c       0xd0 binaries/dhcp.o
                                         0xe8 (size before relaxing)
 .eh_frame      0x000000000011764c       0x2c binaries/dot2ip.o
                                         0x44 (size before relaxing)
 .eh_frame      0x0000000000117678       0x60 binaries/hexdump.o
                                         0x78 (size before relaxing)
 .eh_frame      0x00000000001176d8      0x194 binaries/icmp.o
                                        0x1ac (size before relaxing)
 .eh_frame      0x000000000011786c      0x144 binaries/ip.o
                                        0x15c (size before relaxing)
 .eh_frame      0x00000000001179b0       0x7c binaries/net.o
                                         0x94 (size before relaxing)
 .eh_frame      0x0000000000117a2c       0x24 binaries/netstart.o
                                         0x3c (size before relaxing)
 .eh_frame      0x0000000000117a50       0x50 binaries/pdump.o
                                         0x68 (size before relaxing)
 .eh_frame      0x0000000000117aa0       0x80 binaries/tftp.o
                                         0x98 (size before relaxing)
 .eh_frame      0x0000000000117b20      0x1a4 binaries/udp.o
                                        0x1bc (size before relaxing)
 .eh_frame      0x0000000000117cc4       0x2c binaries/addargs.o
                                         0x44 (size before relaxing)
 .eh_frame      0x0000000000117cf0       0x30 binaries/lexan.o
                                         0x48 (size before relaxing)
 .eh_frame      0x0000000000117d20       0x30 binaries/shell.o
                                         0x48 (size before relaxing)
 .eh_frame      0x0000000000117d50       0x2c binaries/xsh_argecho.o
                                         0x44 (size before relaxing)
 .eh_frame      0x0000000000117d7c       0x30 binaries/xsh_arp.o
                                         0x48 (size before relaxing)
 .eh_frame      0x0000000000117dac       0x30 binaries/xsh_cat.o
                                         0x48 (size before relaxing)
 .eh_frame      0x0000000000117ddc       0x28 binaries/xsh_cd.o
                                         0x40 (size before relaxing)
 .eh_frame      0x0000000000117e04       0x20 binaries/xsh_clear.o
                                         0x38 (size before relaxing)
 .eh_frame      0x0000000000117e24       0x28 binaries/xsh_date.o
                                         0x40 (size before relaxing)
 .eh_frame      0x0000000000117e4c       0x28 binaries/xsh_devdump.o
                                         0x40 (size before relaxing)
 .eh_frame      0x0000000000117e74       0x2c binaries/xsh_echo.o
                                         0x44 (size before relaxing)
 .eh_frame      0x0000000000117ea0       0x20 binaries/xsh_exit.o
                                         0x38 (size before relaxing)
 .eh_frame      0x0000000000117ec0       0x30 binaries/xsh_help.o
                                         0x48 (size before relaxing)
 .eh_frame      0x0000000000117ef0       0x2c binaries/xsh_ipaddr.o
                                         0x44 (size before relaxing)
 .eh_frame      0x0000000000117f1c       0x2c binaries/xsh_kill.o
                                         0x44 (size before relaxing)
 .eh_frame      0x0000000000117f48       0x58 binaries/xsh_memdump.o
                                         0x70 (size before relaxing)
 .eh_frame      0x0000000000117fa0       0x30 binaries/xsh_memstat.o
                                         0x48 (size before relaxing)
 .eh_frame      0x0000000000117fd0       0x30 binaries/xsh_ping.o
                                         0x48 (size before relaxing)
 .eh_frame      0x0000000000118000       0x30 binaries/xsh_ps.o
                                         0x48 (size before relaxing)
 .eh_frame      0x0000000000118030       0x2c binaries/xsh_sleep.o
                                         0x44 (size before relaxing)
 .eh_frame      0x000000000011805c       0x2c binaries/xsh_udpdump.o
                                         0x44 (size before relaxing)
 .eh_frame      0x0000000000118088       0x30 binaries/xsh_udpecho.o
                                         0x48 (size before relaxing)
 .eh_frame      0x00000000001180b8       0x30 binaries/xsh_udpeserver.o
                                         0x48 (size before relaxing)
 .eh_frame      0x00000000001180e8       0x30 binaries/xsh_uptime.o
                                         0x48 (size before relaxing)

.iplt           0x0000000000118120        0x0
 .iplt          0x0000000000000000        0x0 binaries/start.o

.rel.dyn        0x0000000000118118        0x0
 .rel.iplt      0x0000000000000000        0x0 binaries/start.o
 .rel.text      0x0000000000000000        0x0 binaries/start.o
 .rel.data      0x0000000000000000        0x0 binaries/start.o
 .rel.rodata    0x0000000000000000        0x0 binaries/start.o

.data           0x0000000000118120      0xee0
                0x0000000000118120                data = ABSOLUTE (.)
 *(.data .data.*)
 .data          0x0000000000118120      0x85a binaries/start.o
                0x0000000000118120                gdt
                0x0000000000118170                idt
                0x0000000000118976                cpudelay
 *fill*         0x000000000011897a        0x6 
 .data          0x0000000000118980       0x88 binaries/ascdate.o
                0x0000000000118980                Date
 .data          0x0000000000118a08        0x0 binaries/bufinit.o
 .data          0x0000000000118a08        0x0 binaries/chprio.o
 .data          0x0000000000118a08        0x4 binaries/clkhandler.o
 .data          0x0000000000118a0c        0x0 binaries/clkinit.o
 .data          0x0000000000118a0c        0x0 binaries/close.o
 *fill*         0x0000000000118a0c       0x14 
 .data          0x0000000000118a20      0x30c binaries/conf.o
                0x0000000000118a20                devtab
 .data          0x0000000000118d2c        0x0 binaries/control.o
 .data          0x0000000000118d2c        0x0 binaries/cpuintensive.o
 .data          0x0000000000118d2c        0x4 binaries/create.o
 .data          0x0000000000118d30        0x0 binaries/early_imr.o
 *fill*         0x0000000000118d30       0x10 
 .data          0x0000000000118d40       0x40 binaries/evec.o
                0x0000000000118d40                inames
 .data          0x0000000000118d80        0x0 binaries/freebuf.o
 .data          0x0000000000118d80        0x0 binaries/freemem.o
 .data          0x0000000000118d80        0x0 binaries/getbuf.o
 .data          0x0000000000118d80        0x0 binaries/getc.o
 .data          0x0000000000118d80        0x0 binaries/getdev.o
 .data          0x0000000000118d80        0x0 binaries/getitem.o
 .data          0x0000000000118d80        0x0 binaries/getmem.o
 .data          0x0000000000118d80        0x0 binaries/getpid.o
 .data          0x0000000000118d80        0x0 binaries/getprio.o
 .data          0x0000000000118d80        0x0 binaries/getstk.o
 .data          0x0000000000118d80        0x0 binaries/gettime.o
 .data          0x0000000000118d80        0x0 binaries/getutime.o
 .data          0x0000000000118d80        0x0 binaries/init.o
 .data          0x0000000000118d80        0x0 binaries/initialize.o
 .data          0x0000000000118d80        0x0 binaries/insert.o
 .data          0x0000000000118d80        0x0 binaries/insertd.o
 .data          0x0000000000118d80        0x0 binaries/ioerr.o
 .data          0x0000000000118d80        0x0 binaries/iointensive.o
 .data          0x0000000000118d80        0x0 binaries/ionull.o
 .data          0x0000000000118d80        0x0 binaries/kill.o
 .data          0x0000000000118d80        0x0 binaries/kprintf.o
 .data          0x0000000000118d80        0x0 binaries/lab0app1.o
 .data          0x0000000000118d80        0x0 binaries/lab0app2.o
 .data          0x0000000000118d80        0x0 binaries/main.o
 .data          0x0000000000118d80        0x0 binaries/mark.o
 .data          0x0000000000118d80       0x48 binaries/meminit.o
                0x0000000000118d80                gdt_copy
                0x0000000000118dc0                bootinfo
                0x0000000000118dc4                bootsign
 .data          0x0000000000118dc8        0x0 binaries/mkbufpool.o
 .data          0x0000000000118dc8        0x0 binaries/myattacker.o
 .data          0x0000000000118dc8        0x0 binaries/myattackermalware.o
 .data          0x0000000000118dc8        0x0 binaries/myvictim.o
 .data          0x0000000000118dc8        0x2 binaries/newqueue.o
 .data          0x0000000000118dca        0x0 binaries/open.o
 .data          0x0000000000118dca        0x0 binaries/panic.o
 .data          0x0000000000118dca        0x0 binaries/pci.o
 .data          0x0000000000118dca        0x0 binaries/platinit.o
 .data          0x0000000000118dca        0x0 binaries/printsegaddress.o
 .data          0x0000000000118dca        0x0 binaries/ptclear.o
 .data          0x0000000000118dca        0x0 binaries/ptcount.o
 .data          0x0000000000118dca        0x0 binaries/ptcreate.o
 .data          0x0000000000118dca        0x0 binaries/ptdelete.o
 .data          0x0000000000118dca        0x0 binaries/ptinit.o
 .data          0x0000000000118dca        0x0 binaries/ptrecv.o
 .data          0x0000000000118dca        0x0 binaries/ptreset.o
 .data          0x0000000000118dca        0x0 binaries/ptsend.o
 .data          0x0000000000118dca        0x0 binaries/putc.o
 .data          0x0000000000118dca        0x0 binaries/quark_irq.o
 .data          0x0000000000118dca        0x0 binaries/quark_pdat.o
 .data          0x0000000000118dca        0x0 binaries/queue.o
 .data          0x0000000000118dca        0x0 binaries/read.o
 .data          0x0000000000118dca        0x0 binaries/ready.o
 .data          0x0000000000118dca        0x0 binaries/receive.o
 .data          0x0000000000118dca        0x0 binaries/recvclr.o
 .data          0x0000000000118dca        0x0 binaries/recvtime.o
 .data          0x0000000000118dca        0x0 binaries/resched.o
 .data          0x0000000000118dca        0x0 binaries/resume.o
 .data          0x0000000000118dca        0x0 binaries/seek.o
 .data          0x0000000000118dca        0x0 binaries/semcount.o
 .data          0x0000000000118dca        0x0 binaries/semcreate.o
 .data          0x0000000000118dca        0x0 binaries/semdelete.o
 .data          0x0000000000118dca        0x0 binaries/semreset.o
 .data          0x0000000000118dca        0x0 binaries/send.o
 .data          0x0000000000118dca        0x0 binaries/signal.o
 .data          0x0000000000118dca        0x0 binaries/signaln.o
 .data          0x0000000000118dca        0x0 binaries/sleep.o
 .data          0x0000000000118dca        0x0 binaries/stackdepth.o
 .data          0x0000000000118dca        0x0 binaries/stacktrace.o
 .data          0x0000000000118dca        0x0 binaries/suspend.o
 .data          0x0000000000118dca        0x0 binaries/unsleep.o
 .data          0x0000000000118dca        0x0 binaries/userret.o
 .data          0x0000000000118dca        0x0 binaries/wait.o
 .data          0x0000000000118dca        0x0 binaries/wakeup.o
 .data          0x0000000000118dca        0x0 binaries/write.o
 .data          0x0000000000118dca        0x0 binaries/xdone.o
 .data          0x0000000000118dca        0x0 binaries/yield.o
 .data          0x0000000000118dca        0x0 binaries/abs.o
 .data          0x0000000000118dca        0x0 binaries/atoi.o
 .data          0x0000000000118dca        0x0 binaries/atol.o
 .data          0x0000000000118dca        0x0 binaries/bzero.o
 .data          0x0000000000118dca        0x0 binaries/ctype_.o
 .data          0x0000000000118dca        0x0 binaries/doprnt.o
 *fill*         0x0000000000118dca       0x16 
 .data          0x0000000000118de0       0x80 binaries/doscan.o
                0x0000000000118de0                _sctab
 .data          0x0000000000118e60        0x0 binaries/fdoprnt.o
 .data          0x0000000000118e60        0x0 binaries/fgetc.o
 .data          0x0000000000118e60        0x0 binaries/fgets.o
 .data          0x0000000000118e60        0x0 binaries/fprintf.o
 .data          0x0000000000118e60        0x0 binaries/fputc.o
 .data          0x0000000000118e60        0x0 binaries/fputs.o
 .data          0x0000000000118e60        0x0 binaries/fscanf.o
 .data          0x0000000000118e60        0x0 binaries/getchar.o
 .data          0x0000000000118e60        0x0 binaries/labs.o
 .data          0x0000000000118e60        0x0 binaries/memchr.o
 .data          0x0000000000118e60        0x0 binaries/memcmp.o
 .data          0x0000000000118e60        0x0 binaries/memcpy.o
 .data          0x0000000000118e60        0x0 binaries/memset.o
 .data          0x0000000000118e60        0x0 binaries/printf.o
 .data          0x0000000000118e60        0x0 binaries/putchar.o
 .data          0x0000000000118e60        0x0 binaries/qsort.o
 .data          0x0000000000118e60        0x4 binaries/rand.o
 .data          0x0000000000118e64        0x0 binaries/sprintf.o
 .data          0x0000000000118e64        0x0 binaries/sscanf.o
 .data          0x0000000000118e64        0x0 binaries/strchr.o
 .data          0x0000000000118e64        0x0 binaries/strcmp.o
 .data          0x0000000000118e64        0x0 binaries/strcpy.o
 .data          0x0000000000118e64        0x0 binaries/strlen.o
 .data          0x0000000000118e64        0x0 binaries/strncat.o
 .data          0x0000000000118e64        0x0 binaries/strncmp.o
 .data          0x0000000000118e64        0x0 binaries/strncpy.o
 .data          0x0000000000118e64        0x0 binaries/strnlen.o
 .data          0x0000000000118e64        0x0 binaries/strrchr.o
 .data          0x0000000000118e64        0x0 binaries/strstr.o
 .data          0x0000000000118e64        0x0 binaries/ttycontrol.o
 .data          0x0000000000118e64        0x0 binaries/ttygetc.o
 .data          0x0000000000118e64        0x0 binaries/ttyhandle_in.o
 .data          0x0000000000118e64        0x0 binaries/ttyhandle_out.o
 .data          0x0000000000118e64        0x0 binaries/ttyhandler.o
 .data          0x0000000000118e64        0x0 binaries/ttyinit.o
 .data          0x0000000000118e64        0x0 binaries/ttykickout.o
 .data          0x0000000000118e64        0x0 binaries/ttyputc.o
 .data          0x0000000000118e64        0x0 binaries/ttyread.o
 .data          0x0000000000118e64        0x0 binaries/ttywrite.o
 .data          0x0000000000118e64        0x0 binaries/mount.o
 .data          0x0000000000118e64        0x0 binaries/naminit.o
 .data          0x0000000000118e64        0x0 binaries/nammap.o
 .data          0x0000000000118e64        0x0 binaries/namopen.o
 .data          0x0000000000118e64        0x0 binaries/colon2mac.o
 .data          0x0000000000118e64        0x0 binaries/ethcontrol.o
 .data          0x0000000000118e64        0x0 binaries/ethhandler.o
 .data          0x0000000000118e64        0x0 binaries/ethinit.o
 .data          0x0000000000118e64        0x0 binaries/ethmcast.o
 .data          0x0000000000118e64        0x0 binaries/ethread.o
 .data          0x0000000000118e64        0x0 binaries/ethwrite.o
 .data          0x0000000000118e64        0x0 binaries/rdsbufalloc.o
 .data          0x0000000000118e64        0x0 binaries/rdsclose.o
 .data          0x0000000000118e64        0x0 binaries/rdscomm.o
 .data          0x0000000000118e64        0x0 binaries/rdscontrol.o
 .data          0x0000000000118e64        0x0 binaries/rdsinit.o
 .data          0x0000000000118e64        0x0 binaries/rdsopen.o
 .data          0x0000000000118e64        0x0 binaries/rdsprocess.o
 .data          0x0000000000118e64        0x0 binaries/rdsread.o
 .data          0x0000000000118e64        0x0 binaries/rdswrite.o
 .data          0x0000000000118e64        0x0 binaries/ramclose.o
 .data          0x0000000000118e64        0x0 binaries/raminit.o
 .data          0x0000000000118e64        0x0 binaries/ramopen.o
 .data          0x0000000000118e64        0x0 binaries/ramread.o
 .data          0x0000000000118e64        0x0 binaries/ramwrite.o
 .data          0x0000000000118e64        0x0 binaries/lfdballoc.o
 .data          0x0000000000118e64        0x0 binaries/lfdbfree.o
 .data          0x0000000000118e64        0x0 binaries/lfflush.o
 .data          0x0000000000118e64        0x0 binaries/lfgetmode.o
 .data          0x0000000000118e64        0x0 binaries/lfiballoc.o
 .data          0x0000000000118e64        0x0 binaries/lfibclear.o
 .data          0x0000000000118e64        0x0 binaries/lfibget.o
 .data          0x0000000000118e64        0x0 binaries/lfibput.o
 .data          0x0000000000118e64        0x0 binaries/lflclose.o
 .data          0x0000000000118e64        0x0 binaries/lflcontrol.o
 .data          0x0000000000118e64        0x0 binaries/lflgetc.o
 .data          0x0000000000118e64        0x0 binaries/lflinit.o
 .data          0x0000000000118e64        0x0 binaries/lflputc.o
 .data          0x0000000000118e64        0x0 binaries/lflread.o
 .data          0x0000000000118e64        0x0 binaries/lflseek.o
 .data          0x0000000000118e64        0x0 binaries/lflwrite.o
 .data          0x0000000000118e64        0x0 binaries/lfsckfmt.o
 .data          0x0000000000118e64        0x0 binaries/lfscreate.o
 .data          0x0000000000118e64        0x0 binaries/lfsetup.o
 .data          0x0000000000118e64        0x0 binaries/lfsinit.o
 .data          0x0000000000118e64        0x0 binaries/lfsopen.o
 .data          0x0000000000118e64        0x0 binaries/lftruncate.o
 .data          0x0000000000118e64        0x0 binaries/rflclose.o
 .data          0x0000000000118e64        0x0 binaries/rflgetc.o
 .data          0x0000000000118e64        0x0 binaries/rflinit.o
 .data          0x0000000000118e64        0x0 binaries/rflputc.o
 .data          0x0000000000118e64        0x0 binaries/rflread.o
 .data          0x0000000000118e64        0x0 binaries/rflseek.o
 .data          0x0000000000118e64        0x0 binaries/rflwrite.o
 .data          0x0000000000118e64        0x0 binaries/rfscomm.o
 .data          0x0000000000118e64        0x0 binaries/rfscontrol.o
 .data          0x0000000000118e64        0x0 binaries/rfsgetmode.o
 .data          0x0000000000118e64        0x0 binaries/rfsinit.o
 .data          0x0000000000118e64        0x0 binaries/rfsndmsg.o
 .data          0x0000000000118e64        0x0 binaries/rfsopen.o
 .data          0x0000000000118e64        0x0 binaries/arp.o
 .data          0x0000000000118e64        0x0 binaries/dhcp.o
 .data          0x0000000000118e64        0x0 binaries/dot2ip.o
 .data          0x0000000000118e64        0x0 binaries/hexdump.o
 .data          0x0000000000118e64        0x4 binaries/icmp.o
 .data          0x0000000000118e68        0x0 binaries/ip.o
 .data          0x0000000000118e68        0x0 binaries/net.o
 .data          0x0000000000118e68        0x0 binaries/netstart.o
 .data          0x0000000000118e68        0x0 binaries/pdump.o
 .data          0x0000000000118e68        0x0 binaries/tftp.o
 .data          0x0000000000118e68        0x4 binaries/udp.o
 .data          0x0000000000118e6c        0x0 binaries/addargs.o
 .data          0x0000000000118e6c        0x0 binaries/lexan.o
 .data          0x0000000000118e6c        0x4 binaries/shell.o
                0x0000000000118e6c                ncmd
 .data          0x0000000000118e70        0x0 binaries/xsh_argecho.o
 .data          0x0000000000118e70        0x0 binaries/xsh_arp.o
 .data          0x0000000000118e70        0x0 binaries/xsh_cat.o
 .data          0x0000000000118e70        0x0 binaries/xsh_cd.o
 .data          0x0000000000118e70        0x0 binaries/xsh_clear.o
 .data          0x0000000000118e70        0x0 binaries/xsh_date.o
 .data          0x0000000000118e70        0x0 binaries/xsh_devdump.o
 .data          0x0000000000118e70        0x0 binaries/xsh_echo.o
 .data          0x0000000000118e70        0x0 binaries/xsh_exit.o
 .data          0x0000000000118e70        0x0 binaries/xsh_help.o
 .data          0x0000000000118e70        0x0 binaries/xsh_ipaddr.o
 .data          0x0000000000118e70        0x0 binaries/xsh_kill.o
 .data          0x0000000000118e70        0x0 binaries/xsh_memdump.o
 .data          0x0000000000118e70        0x0 binaries/xsh_memstat.o
 .data          0x0000000000118e70        0x0 binaries/xsh_ping.o
 .data          0x0000000000118e70        0x0 binaries/xsh_ps.o
 .data          0x0000000000118e70        0x0 binaries/xsh_sleep.o
 .data          0x0000000000118e70        0x0 binaries/xsh_udpdump.o
 .data          0x0000000000118e70        0x0 binaries/xsh_udpecho.o
 .data          0x0000000000118e70        0x0 binaries/xsh_udpeserver.o
 .data          0x0000000000118e70        0x0 binaries/xsh_uptime.o
 .data          0x0000000000118e70        0x0 binaries/clkdisp.o
 .data          0x0000000000118e70        0x0 binaries/ctxsw.o
 .data          0x0000000000118e70        0x0 binaries/host2netl.o
 .data          0x0000000000118e70        0x0 binaries/intr.o
 .data          0x0000000000118e70        0x0 binaries/ttydispatch.o
 .data          0x0000000000118e70        0x0 binaries/ethdispatch.o
                0x0000000000118e70                edata = ABSOLUTE (.)
                0x0000000000119000                . = ALIGN (0x1000)
 *fill*         0x0000000000118e70      0x190 

.igot.plt       0x0000000000119000        0x0
 .igot.plt      0x0000000000000000        0x0 binaries/start.o

.bss            0x0000000000119000    0x20000
                0x0000000000119000                bss = ABSOLUTE (.)
 *(.bss .bss.*)
 .bss           0x0000000000119000        0x0 binaries/start.o
 .bss           0x0000000000119000        0x0 binaries/ascdate.o
 .bss           0x0000000000119000        0x0 binaries/bufinit.o
 .bss           0x0000000000119000        0x0 binaries/chprio.o
 .bss           0x0000000000119000        0x0 binaries/clkhandler.o
 .bss           0x0000000000119000        0x8 binaries/clkinit.o
                0x0000000000119000                ctr1000
                0x0000000000119004                clktimefine
 .bss           0x0000000000119008        0x0 binaries/close.o
 .bss           0x0000000000119008        0x0 binaries/conf.o
 .bss           0x0000000000119008        0x0 binaries/control.o
 .bss           0x0000000000119008        0x0 binaries/cpuintensive.o
 .bss           0x0000000000119008        0x0 binaries/create.o
 .bss           0x0000000000119008        0x0 binaries/early_imr.o
 .bss           0x0000000000119008        0x0 binaries/evec.o
 .bss           0x0000000000119008        0x0 binaries/freebuf.o
 .bss           0x0000000000119008        0x0 binaries/freemem.o
 .bss           0x0000000000119008        0x0 binaries/getbuf.o
 .bss           0x0000000000119008        0x0 binaries/getc.o
 .bss           0x0000000000119008        0x0 binaries/getdev.o
 .bss           0x0000000000119008        0x0 binaries/getitem.o
 .bss           0x0000000000119008        0x0 binaries/getmem.o
 .bss           0x0000000000119008        0x0 binaries/getpid.o
 .bss           0x0000000000119008        0x0 binaries/getprio.o
 .bss           0x0000000000119008        0x0 binaries/getstk.o
 .bss           0x0000000000119008        0x0 binaries/gettime.o
 .bss           0x0000000000119008        0x0 binaries/getutime.o
 .bss           0x0000000000119008        0x0 binaries/init.o
 .bss           0x0000000000119008        0x0 binaries/initialize.o
 .bss           0x0000000000119008        0x0 binaries/insert.o
 .bss           0x0000000000119008        0x0 binaries/insertd.o
 .bss           0x0000000000119008        0x0 binaries/ioerr.o
 .bss           0x0000000000119008        0x0 binaries/iointensive.o
 .bss           0x0000000000119008        0x0 binaries/ionull.o
 .bss           0x0000000000119008        0x0 binaries/kill.o
 .bss           0x0000000000119008        0x0 binaries/kprintf.o
 .bss           0x0000000000119008        0x0 binaries/lab0app1.o
 .bss           0x0000000000119008        0x0 binaries/lab0app2.o
 .bss           0x0000000000119008        0xc binaries/main.o
                0x0000000000119008                myvictimglobal
                0x000000000011900c                mya
                0x0000000000119010                myv
 .bss           0x0000000000119014        0x0 binaries/mark.o
 .bss           0x0000000000119014        0x0 binaries/meminit.o
 .bss           0x0000000000119014        0x0 binaries/mkbufpool.o
 .bss           0x0000000000119014        0x0 binaries/myattacker.o
 .bss           0x0000000000119014        0x0 binaries/myattackermalware.o
 .bss           0x0000000000119014        0x0 binaries/myvictim.o
 .bss           0x0000000000119014        0x0 binaries/newqueue.o
 .bss           0x0000000000119014        0x0 binaries/open.o
 .bss           0x0000000000119014        0x0 binaries/panic.o
 .bss           0x0000000000119014        0x0 binaries/pci.o
 .bss           0x0000000000119014        0x0 binaries/platinit.o
 .bss           0x0000000000119014        0x0 binaries/printsegaddress.o
 .bss           0x0000000000119014        0x0 binaries/ptclear.o
 .bss           0x0000000000119014        0x0 binaries/ptcount.o
 .bss           0x0000000000119014        0x0 binaries/ptcreate.o
 .bss           0x0000000000119014        0x0 binaries/ptdelete.o
 .bss           0x0000000000119014        0x0 binaries/ptinit.o
 .bss           0x0000000000119014        0x0 binaries/ptrecv.o
 .bss           0x0000000000119014        0x0 binaries/ptreset.o
 .bss           0x0000000000119014        0x0 binaries/ptsend.o
 .bss           0x0000000000119014        0x0 binaries/putc.o
 .bss           0x0000000000119014        0x0 binaries/quark_irq.o
 .bss           0x0000000000119014        0x0 binaries/quark_pdat.o
 .bss           0x0000000000119014        0x0 binaries/queue.o
 .bss           0x0000000000119014        0x0 binaries/read.o
 .bss           0x0000000000119014        0x0 binaries/ready.o
 .bss           0x0000000000119014        0x0 binaries/receive.o
 .bss           0x0000000000119014        0x0 binaries/recvclr.o
 .bss           0x0000000000119014        0x0 binaries/recvtime.o
 .bss           0x0000000000119014        0x4 binaries/resched.o
                0x0000000000119014                store
 .bss           0x0000000000119018        0x0 binaries/resume.o
 .bss           0x0000000000119018        0x0 binaries/seek.o
 .bss           0x0000000000119018        0x0 binaries/semcount.o
 .bss           0x0000000000119018        0x4 binaries/semcreate.o
 .bss           0x000000000011901c        0x0 binaries/semdelete.o
 .bss           0x000000000011901c        0x0 binaries/semreset.o
 .bss           0x000000000011901c        0x0 binaries/send.o
 .bss           0x000000000011901c        0x0 binaries/signal.o
 .bss           0x000000000011901c        0x0 binaries/signaln.o
 .bss           0x000000000011901c        0x0 binaries/sleep.o
 .bss           0x000000000011901c        0x0 binaries/stackdepth.o
 .bss           0x000000000011901c        0x8 binaries/stacktrace.o
 .bss           0x0000000000119024        0x0 binaries/suspend.o
 .bss           0x0000000000119024        0x0 binaries/unsleep.o
 .bss           0x0000000000119024        0x0 binaries/userret.o
 .bss           0x0000000000119024        0x0 binaries/wait.o
 .bss           0x0000000000119024        0x0 binaries/wakeup.o
 .bss           0x0000000000119024        0x0 binaries/write.o
 .bss           0x0000000000119024        0x0 binaries/xdone.o
 .bss           0x0000000000119024        0x0 binaries/yield.o
 .bss           0x0000000000119024        0x0 binaries/abs.o
 .bss           0x0000000000119024        0x0 binaries/atoi.o
 .bss           0x0000000000119024        0x0 binaries/atol.o
 .bss           0x0000000000119024        0x0 binaries/bzero.o
 .bss           0x0000000000119024        0x0 binaries/ctype_.o
 .bss           0x0000000000119024        0x0 binaries/doprnt.o
 .bss           0x0000000000119024        0x0 binaries/doscan.o
 .bss           0x0000000000119024        0x0 binaries/fdoprnt.o
 .bss           0x0000000000119024        0x0 binaries/fgetc.o
 .bss           0x0000000000119024        0x0 binaries/fgets.o
 .bss           0x0000000000119024        0x0 binaries/fprintf.o
 .bss           0x0000000000119024        0x0 binaries/fputc.o
 .bss           0x0000000000119024        0x0 binaries/fputs.o
 .bss           0x0000000000119024        0x0 binaries/fscanf.o
 .bss           0x0000000000119024        0x0 binaries/getchar.o
 .bss           0x0000000000119024        0x0 binaries/labs.o
 .bss           0x0000000000119024        0x0 binaries/memchr.o
 .bss           0x0000000000119024        0x0 binaries/memcmp.o
 .bss           0x0000000000119024        0x0 binaries/memcpy.o
 .bss           0x0000000000119024        0x0 binaries/memset.o
 .bss           0x0000000000119024        0x0 binaries/printf.o
 .bss           0x0000000000119024        0x0 binaries/putchar.o
 .bss           0x0000000000119024        0x8 binaries/qsort.o
 .bss           0x000000000011902c        0x0 binaries/rand.o
 .bss           0x000000000011902c        0x0 binaries/sprintf.o
 .bss           0x000000000011902c        0x0 binaries/sscanf.o
 .bss           0x000000000011902c        0x0 binaries/strchr.o
 .bss           0x000000000011902c        0x0 binaries/strcmp.o
 .bss           0x000000000011902c        0x0 binaries/strcpy.o
 .bss           0x000000000011902c        0x0 binaries/strlen.o
 .bss           0x000000000011902c        0x0 binaries/strncat.o
 .bss           0x000000000011902c        0x0 binaries/strncmp.o
 .bss           0x000000000011902c        0x0 binaries/strncpy.o
 .bss           0x000000000011902c        0x0 binaries/strnlen.o
 .bss           0x000000000011902c        0x0 binaries/strrchr.o
 .bss           0x000000000011902c        0x0 binaries/strstr.o
 .bss           0x000000000011902c        0x0 binaries/ttycontrol.o
 .bss           0x000000000011902c        0x0 binaries/ttygetc.o
 .bss           0x000000000011902c        0x0 binaries/ttyhandle_in.o
 .bss           0x000000000011902c        0x0 binaries/ttyhandle_out.o
 .bss           0x000000000011902c        0x0 binaries/ttyhandler.o
 .bss           0x000000000011902c        0x0 binaries/ttyinit.o
 .bss           0x000000000011902c        0x0 binaries/ttykickout.o
 .bss           0x000000000011902c        0x0 binaries/ttyputc.o
 .bss           0x000000000011902c        0x0 binaries/ttyread.o
 .bss           0x000000000011902c        0x0 binaries/ttywrite.o
 .bss           0x000000000011902c        0x0 binaries/mount.o
 .bss           0x000000000011902c        0x0 binaries/naminit.o
 .bss           0x000000000011902c        0x0 binaries/nammap.o
 .bss           0x000000000011902c        0x0 binaries/namopen.o
 .bss           0x000000000011902c        0x0 binaries/colon2mac.o
 .bss           0x000000000011902c        0x0 binaries/ethcontrol.o
 .bss           0x000000000011902c        0x0 binaries/ethhandler.o
 .bss           0x000000000011902c        0x0 binaries/ethinit.o
 .bss           0x000000000011902c        0x0 binaries/ethmcast.o
 .bss           0x000000000011902c        0x0 binaries/ethread.o
 .bss           0x000000000011902c        0x0 binaries/ethwrite.o
 .bss           0x000000000011902c        0x0 binaries/rdsbufalloc.o
 .bss           0x000000000011902c        0x0 binaries/rdsclose.o
 .bss           0x000000000011902c        0x0 binaries/rdscomm.o
 .bss           0x000000000011902c        0x0 binaries/rdscontrol.o
 .bss           0x000000000011902c        0x0 binaries/rdsinit.o
 .bss           0x000000000011902c        0x0 binaries/rdsopen.o
 .bss           0x000000000011902c        0x0 binaries/rdsprocess.o
 .bss           0x000000000011902c        0x0 binaries/rdsread.o
 .bss           0x000000000011902c        0x0 binaries/rdswrite.o
 .bss           0x000000000011902c        0x0 binaries/ramclose.o
 .bss           0x000000000011902c        0x0 binaries/raminit.o
 .bss           0x000000000011902c        0x0 binaries/ramopen.o
 .bss           0x000000000011902c        0x0 binaries/ramread.o
 .bss           0x000000000011902c        0x0 binaries/ramwrite.o
 .bss           0x000000000011902c        0x0 binaries/lfdballoc.o
 .bss           0x000000000011902c        0x0 binaries/lfdbfree.o
 .bss           0x000000000011902c        0x0 binaries/lfflush.o
 .bss           0x000000000011902c        0x0 binaries/lfgetmode.o
 .bss           0x000000000011902c        0x0 binaries/lfiballoc.o
 .bss           0x000000000011902c        0x0 binaries/lfibclear.o
 .bss           0x000000000011902c        0x0 binaries/lfibget.o
 .bss           0x000000000011902c        0x0 binaries/lfibput.o
 .bss           0x000000000011902c        0x0 binaries/lflclose.o
 .bss           0x000000000011902c        0x0 binaries/lflcontrol.o
 .bss           0x000000000011902c        0x0 binaries/lflgetc.o
 .bss           0x000000000011902c        0x0 binaries/lflinit.o
 .bss           0x000000000011902c        0x0 binaries/lflputc.o
 .bss           0x000000000011902c        0x0 binaries/lflread.o
 .bss           0x000000000011902c        0x0 binaries/lflseek.o
 .bss           0x000000000011902c        0x0 binaries/lflwrite.o
 .bss           0x000000000011902c        0x0 binaries/lfsckfmt.o
 .bss           0x000000000011902c        0x0 binaries/lfscreate.o
 .bss           0x000000000011902c        0x0 binaries/lfsetup.o
 .bss           0x000000000011902c        0x0 binaries/lfsinit.o
 .bss           0x000000000011902c        0x0 binaries/lfsopen.o
 .bss           0x000000000011902c        0x0 binaries/lftruncate.o
 .bss           0x000000000011902c        0x0 binaries/rflclose.o
 .bss           0x000000000011902c        0x0 binaries/rflgetc.o
 .bss           0x000000000011902c        0x0 binaries/rflinit.o
 .bss           0x000000000011902c        0x0 binaries/rflputc.o
 .bss           0x000000000011902c        0x0 binaries/rflread.o
 .bss           0x000000000011902c        0x0 binaries/rflseek.o
 .bss           0x000000000011902c        0x0 binaries/rflwrite.o
 .bss           0x000000000011902c        0x0 binaries/rfscomm.o
 .bss           0x000000000011902c        0x0 binaries/rfscontrol.o
 .bss           0x000000000011902c        0x0 binaries/rfsgetmode.o
 .bss           0x000000000011902c        0x0 binaries/rfsinit.o
 .bss           0x000000000011902c        0x0 binaries/rfsndmsg.o
 .bss           0x000000000011902c        0x0 binaries/rfsopen.o
 .bss           0x000000000011902c        0x0 binaries/arp.o
 .bss           0x000000000011902c        0x0 binaries/dhcp.o
 .bss           0x000000000011902c        0x0 binaries/dot2ip.o
 .bss           0x000000000011902c        0x0 binaries/hexdump.o
 .bss           0x000000000011902c        0x0 binaries/icmp.o
 .bss           0x000000000011902c        0x0 binaries/ip.o
 .bss           0x000000000011902c        0x0 binaries/net.o
 .bss           0x000000000011902c        0x0 binaries/netstart.o
 .bss           0x000000000011902c        0x0 binaries/pdump.o
 .bss           0x000000000011902c        0x0 binaries/tftp.o
 .bss           0x000000000011902c        0x0 binaries/udp.o
 .bss           0x000000000011902c        0x0 binaries/addargs.o
 .bss           0x000000000011902c        0x0 binaries/lexan.o
 .bss           0x000000000011902c        0x0 binaries/shell.o
 .bss           0x000000000011902c        0x0 binaries/xsh_argecho.o
 .bss           0x000000000011902c        0x0 binaries/xsh_arp.o
 .bss           0x000000000011902c        0x0 binaries/xsh_cat.o
 .bss           0x000000000011902c        0x0 binaries/xsh_cd.o
 .bss           0x000000000011902c        0x0 binaries/xsh_clear.o
 .bss           0x000000000011902c        0x0 binaries/xsh_date.o
 .bss           0x000000000011902c        0x0 binaries/xsh_devdump.o
 .bss           0x000000000011902c        0x0 binaries/xsh_echo.o
 .bss           0x000000000011902c        0x0 binaries/xsh_exit.o
 .bss           0x000000000011902c        0x0 binaries/xsh_help.o
 .bss           0x000000000011902c        0x0 binaries/xsh_ipaddr.o
 .bss           0x000000000011902c        0x0 binaries/xsh_kill.o
 .bss           0x000000000011902c        0x0 binaries/xsh_memdump.o
 .bss           0x000000000011902c        0x0 binaries/xsh_memstat.o
 .bss           0x000000000011902c        0x4 binaries/xsh_ping.o
 .bss           0x0000000000119030        0x0 binaries/xsh_ps.o
 .bss           0x0000000000119030        0x0 binaries/xsh_sleep.o
 .bss           0x0000000000119030        0x0 binaries/xsh_udpdump.o
 .bss           0x0000000000119030        0x0 binaries/xsh_udpecho.o
 .bss           0x0000000000119030        0x0 binaries/xsh_udpeserver.o
 .bss           0x0000000000119030        0x0 binaries/xsh_uptime.o
 .bss           0x0000000000119030        0x0 binaries/clkdisp.o
 .bss           0x0000000000119030        0x0 binaries/ctxsw.o
 .bss           0x0000000000119030        0x0 binaries/host2netl.o
 .bss           0x0000000000119030        0x0 binaries/intr.o
 .bss           0x0000000000119030        0x0 binaries/ttydispatch.o
 .bss           0x0000000000119030        0x0 binaries/ethdispatch.o
 *(COMMON)
 *fill*         0x0000000000119030       0x10 
 COMMON         0x0000000000119040       0xf4 binaries/bufinit.o
                0x0000000000119040                buftab
                0x0000000000119130                nbpools
 COMMON         0x0000000000119134        0xc binaries/clkinit.o
                0x0000000000119134                sleepq
                0x0000000000119138                preempt
                0x000000000011913c                clktime
 COMMON         0x0000000000119140        0x2 binaries/evec.o
                0x0000000000119140                girmask
 *fill*         0x0000000000119142       0x1e 
 COMMON         0x0000000000119160     0x1c58 binaries/initialize.o
                0x0000000000119160                currpid
                0x0000000000119180                proctab
                0x000000000011a8f0                prcount
                0x000000000011a900                semtab
                0x000000000011adb0                memlist
 *fill*         0x000000000011adb8        0x8 
 COMMON         0x000000000011adc0       0x58 binaries/mark.o
                0x000000000011adc0                marks
                0x000000000011ae10                nmarks
                0x000000000011ae14                mkmutex
 COMMON         0x000000000011ae18        0x8 binaries/meminit.o
                0x000000000011ae18                minheap
                0x000000000011ae1c                maxheap
 COMMON         0x000000000011ae20      0x2d8 binaries/ptinit.o
                0x000000000011ae20                porttab
                0x000000000011b0f0                ptnextid
                0x000000000011b0f4                ptfree
 *fill*         0x000000000011b0f8        0x8 
 COMMON         0x000000000011b100      0x980 binaries/queue.o
                0x000000000011b100                queuetab
 COMMON         0x000000000011ba80        0x2 binaries/ready.o
                0x000000000011ba80                readylist
 *fill*         0x000000000011ba82        0x2 
 COMMON         0x000000000011ba84        0x8 binaries/resched.o
                0x000000000011ba84                Defer
 COMMON         0x000000000011ba8c        0x8 binaries/stackdepth.o
                0x000000000011ba8c                ebp
                0x000000000011ba90                esp
 *fill*         0x000000000011ba94        0xc 
 COMMON         0x000000000011baa0      0x10c binaries/ttyinit.o
                0x000000000011baa0                ttytab
 *fill*         0x000000000011bbac       0x14 
 COMMON         0x000000000011bbc0     0x19c0 binaries/naminit.o
                0x000000000011bbc0                nnames
                0x000000000011bbe0                nametab
 COMMON         0x000000000011d580      0x138 binaries/ethinit.o
                0x000000000011d580                ethertab
 *fill*         0x000000000011d6b8        0x8 
 COMMON         0x000000000011d6c0       0x8c binaries/rdsinit.o
                0x000000000011d6c0                rdstab
 *fill*         0x000000000011d74c       0x14 
 COMMON         0x000000000011d760    0x19000 binaries/raminit.o
                0x000000000011d760                Ram
 COMMON         0x0000000000136760      0xf00 binaries/lflinit.o
                0x0000000000136760                lfltab
 COMMON         0x0000000000137660      0x20c binaries/lfsinit.o
                0x0000000000137660                Lf_data
 *fill*         0x000000000013786c       0x14 
 COMMON         0x0000000000137880      0x5a0 binaries/rflinit.o
                0x0000000000137880                rfltab
 COMMON         0x0000000000137e20       0x18 binaries/rfsinit.o
                0x0000000000137e20                Rf_data
 *fill*         0x0000000000137e38        0x8 
 COMMON         0x0000000000137e40      0x140 binaries/arp.o
                0x0000000000137e40                arpcache
 COMMON         0x0000000000137f80      0x230 binaries/icmp.o
                0x0000000000137f80                icmptab
 *fill*         0x00000000001381b0       0x10 
 COMMON         0x00000000001381c0       0x2c binaries/ip.o
                0x00000000001381c0                ipoqueue
 *fill*         0x00000000001381ec       0x14 
 COMMON         0x0000000000138200       0xc8 binaries/net.o
                0x0000000000138200                netbufpool
                0x0000000000138220                NetData
 *fill*         0x00000000001382c8       0x18 
 COMMON         0x00000000001382e0      0x168 binaries/udp.o
                0x00000000001382e0                udptab
                0x0000000000138448                ebss = ABSOLUTE (.)
                0x0000000000139000                . = ALIGN (0x1000)
 *fill*         0x0000000000138448      0xbb8 
 */()
                0x0000000000139000                end = ABSOLUTE (.)
                0x0000000000139000                _end = ABSOLUTE (.)
                0x0000000000139000                . = ALIGN (0x1000)
LOAD binaries/start.o
LOAD binaries/ascdate.o
LOAD binaries/bufinit.o
LOAD binaries/chprio.o
LOAD binaries/clkhandler.o
LOAD binaries/clkinit.o
LOAD binaries/close.o
LOAD binaries/conf.o
LOAD binaries/control.o
LOAD binaries/cpuintensive.o
LOAD binaries/create.o
LOAD binaries/early_imr.o
LOAD binaries/evec.o
LOAD binaries/freebuf.o
LOAD binaries/freemem.o
LOAD binaries/getbuf.o
LOAD binaries/getc.o
LOAD binaries/getdev.o
LOAD binaries/getitem.o
LOAD binaries/getmem.o
LOAD binaries/getpid.o
LOAD binaries/getprio.o
LOAD binaries/getstk.o
LOAD binaries/gettime.o
LOAD binaries/getutime.o
LOAD binaries/init.o
LOAD binaries/initialize.o
LOAD binaries/insert.o
LOAD binaries/insertd.o
LOAD binaries/ioerr.o
LOAD binaries/iointensive.o
LOAD binaries/ionull.o
LOAD binaries/kill.o
LOAD binaries/kprintf.o
LOAD binaries/lab0app1.o
LOAD binaries/lab0app2.o
LOAD binaries/main.o
LOAD binaries/mark.o
LOAD binaries/meminit.o
LOAD binaries/mkbufpool.o
LOAD binaries/myattacker.o
LOAD binaries/myattackermalware.o
LOAD binaries/myvictim.o
LOAD binaries/newqueue.o
LOAD binaries/open.o
LOAD binaries/panic.o
LOAD binaries/pci.o
LOAD binaries/platinit.o
LOAD binaries/printsegaddress.o
LOAD binaries/ptclear.o
LOAD binaries/ptcount.o
LOAD binaries/ptcreate.o
LOAD binaries/ptdelete.o
LOAD binaries/ptinit.o
LOAD binaries/ptrecv.o
LOAD binaries/ptreset.o
LOAD binaries/ptsend.o
LOAD binaries/putc.o
LOAD binaries/quark_irq.o
LOAD binaries/quark_pdat.o
LOAD binaries/queue.o
LOAD binaries/read.o
LOAD binaries/ready.o
LOAD binaries/receive.o
LOAD binaries/recvclr.o
LOAD binaries/recvtime.o
LOAD binaries/resched.o
LOAD binaries/resume.o
LOAD binaries/seek.o
LOAD binaries/semcount.o
LOAD binaries/semcreate.o
LOAD binaries/semdelete.o
LOAD binaries/semreset.o
LOAD binaries/send.o
LOAD binaries/signal.o
LOAD binaries/signaln.o
LOAD binaries/sleep.o
LOAD binaries/stackdepth.o
LOAD binaries/stacktrace.o
LOAD binaries/suspend.o
LOAD binaries/unsleep.o
LOAD binaries/userret.o
LOAD binaries/wait.o
LOAD binaries/wakeup.o
LOAD binaries/write.o
LOAD binaries/xdone.o
LOAD binaries/yield.o
LOAD binaries/abs.o
LOAD binaries/atoi.o
LOAD binaries/atol.o
LOAD binaries/bzero.o
LOAD binaries/ctype_.o
LOAD binaries/doprnt.o
LOAD binaries/doscan.o
LOAD binaries/fdoprnt.o
LOAD binaries/fgetc.o
LOAD binaries/fgets.o
LOAD binaries/fprintf.o
LOAD binaries/fputc.o
LOAD binaries/fputs.o
LOAD binaries/fscanf.o
LOAD binaries/getchar.o
LOAD binaries/labs.o
LOAD binaries/memchr.o
LOAD binaries/memcmp.o
LOAD binaries/memcpy.o
LOAD binaries/memset.o
LOAD binaries/printf.o
LOAD binaries/putchar.o
LOAD binaries/qsort.o
LOAD binaries/rand.o
LOAD binaries/sprintf.o
LOAD binaries/sscanf.o
LOAD binaries/strchr.o
LOAD binaries/strcmp.o
LOAD binaries/strcpy.o
LOAD binaries/strlen.o
LOAD binaries/strncat.o
LOAD binaries/strncmp.o
LOAD binaries/strncpy.o
LOAD binaries/strnlen.o
LOAD binaries/strrchr.o
LOAD binaries/strstr.o
LOAD binaries/ttycontrol.o
LOAD binaries/ttygetc.o
LOAD binaries/ttyhandle_in.o
LOAD binaries/ttyhandle_out.o
LOAD binaries/ttyhandler.o
LOAD binaries/ttyinit.o
LOAD binaries/ttykickout.o
LOAD binaries/ttyputc.o
LOAD binaries/ttyread.o
LOAD binaries/ttywrite.o
LOAD binaries/mount.o
LOAD binaries/naminit.o
LOAD binaries/nammap.o
LOAD binaries/namopen.o
LOAD binaries/colon2mac.o
LOAD binaries/ethcontrol.o
LOAD binaries/ethhandler.o
LOAD binaries/ethinit.o
LOAD binaries/ethmcast.o
LOAD binaries/ethread.o
LOAD binaries/ethwrite.o
LOAD binaries/rdsbufalloc.o
LOAD binaries/rdsclose.o
LOAD binaries/rdscomm.o
LOAD binaries/rdscontrol.o
LOAD binaries/rdsinit.o
LOAD binaries/rdsopen.o
LOAD binaries/rdsprocess.o
LOAD binaries/rdsread.o
LOAD binaries/rdswrite.o
LOAD binaries/ramclose.o
LOAD binaries/raminit.o
LOAD binaries/ramopen.o
LOAD binaries/ramread.o
LOAD binaries/ramwrite.o
LOAD binaries/lfdballoc.o
LOAD binaries/lfdbfree.o
LOAD binaries/lfflush.o
LOAD binaries/lfgetmode.o
LOAD binaries/lfiballoc.o
LOAD binaries/lfibclear.o
LOAD binaries/lfibget.o
LOAD binaries/lfibput.o
LOAD binaries/lflclose.o
LOAD binaries/lflcontrol.o
LOAD binaries/lflgetc.o
LOAD binaries/lflinit.o
LOAD binaries/lflputc.o
LOAD binaries/lflread.o
LOAD binaries/lflseek.o
LOAD binaries/lflwrite.o
LOAD binaries/lfsckfmt.o
LOAD binaries/lfscreate.o
LOAD binaries/lfsetup.o
LOAD binaries/lfsinit.o
LOAD binaries/lfsopen.o
LOAD binaries/lftruncate.o
LOAD binaries/rflclose.o
LOAD binaries/rflgetc.o
LOAD binaries/rflinit.o
LOAD binaries/rflputc.o
LOAD binaries/rflread.o
LOAD binaries/rflseek.o
LOAD binaries/rflwrite.o
LOAD binaries/rfscomm.o
LOAD binaries/rfscontrol.o
LOAD binaries/rfsgetmode.o
LOAD binaries/rfsinit.o
LOAD binaries/rfsndmsg.o
LOAD binaries/rfsopen.o
LOAD binaries/arp.o
LOAD binaries/dhcp.o
LOAD binaries/dot2ip.o
LOAD binaries/hexdump.o
LOAD binaries/icmp.o
LOAD binaries/ip.o
LOAD binaries/net.o
LOAD binaries/netstart.o
LOAD binaries/pdump.o
LOAD binaries/tftp.o
LOAD binaries/udp.o
LOAD binaries/addargs.o
LOAD binaries/lexan.o
LOAD binaries/shell.o
LOAD binaries/xsh_argecho.o
LOAD binaries/xsh_arp.o
LOAD binaries/xsh_cat.o
LOAD binaries/xsh_cd.o
LOAD binaries/xsh_clear.o
LOAD binaries/xsh_date.o
LOAD binaries/xsh_devdump.o
LOAD binaries/xsh_echo.o
LOAD binaries/xsh_exit.o
LOAD binaries/xsh_help.o
LOAD binaries/xsh_ipaddr.o
LOAD binaries/xsh_kill.o
LOAD binaries/xsh_memdump.o
LOAD binaries/xsh_memstat.o
LOAD binaries/xsh_ping.o
LOAD binaries/xsh_ps.o
LOAD binaries/xsh_sleep.o
LOAD binaries/xsh_udpdump.o
LOAD binaries/xsh_udpecho.o
LOAD binaries/xsh_udpeserver.o
LOAD binaries/xsh_uptime.o
LOAD binaries/clkdisp.o
LOAD binaries/ctxsw.o
LOAD binaries/host2netl.o
LOAD binaries/intr.o
LOAD binaries/ttydispatch.o
LOAD binaries/ethdispatch.o
OUTPUT(../compile/xinu elf32-i386)

.comment        0x0000000000000000       0x2a
 .comment       0x0000000000000000       0x2a binaries/ascdate.o
                                         0x2b (size before relaxing)
 .comment       0x0000000000000000       0x2b binaries/bufinit.o
 .comment       0x0000000000000000       0x2b binaries/chprio.o
 .comment       0x0000000000000000       0x2b binaries/clkhandler.o
 .comment       0x0000000000000000       0x2b binaries/clkinit.o
 .comment       0x0000000000000000       0x2b binaries/close.o
 .comment       0x0000000000000000       0x2b binaries/conf.o
 .comment       0x0000000000000000       0x2b binaries/control.o
 .comment       0x0000000000000000       0x2b binaries/cpuintensive.o
 .comment       0x0000000000000000       0x2b binaries/create.o
 .comment       0x0000000000000000       0x2b binaries/early_imr.o
 .comment       0x0000000000000000       0x2b binaries/evec.o
 .comment       0x0000000000000000       0x2b binaries/freebuf.o
 .comment       0x0000000000000000       0x2b binaries/freemem.o
 .comment       0x0000000000000000       0x2b binaries/getbuf.o
 .comment       0x0000000000000000       0x2b binaries/getc.o
 .comment       0x0000000000000000       0x2b binaries/getdev.o
 .comment       0x0000000000000000       0x2b binaries/getitem.o
 .comment       0x0000000000000000       0x2b binaries/getmem.o
 .comment       0x0000000000000000       0x2b binaries/getpid.o
 .comment       0x0000000000000000       0x2b binaries/getprio.o
 .comment       0x0000000000000000       0x2b binaries/getstk.o
 .comment       0x0000000000000000       0x2b binaries/gettime.o
 .comment       0x0000000000000000       0x2b binaries/getutime.o
 .comment       0x0000000000000000       0x2b binaries/init.o
 .comment       0x0000000000000000       0x2b binaries/initialize.o
 .comment       0x0000000000000000       0x2b binaries/insert.o
 .comment       0x0000000000000000       0x2b binaries/insertd.o
 .comment       0x0000000000000000       0x2b binaries/ioerr.o
 .comment       0x0000000000000000       0x2b binaries/iointensive.o
 .comment       0x0000000000000000       0x2b binaries/ionull.o
 .comment       0x0000000000000000       0x2b binaries/kill.o
 .comment       0x0000000000000000       0x2b binaries/kprintf.o
 .comment       0x0000000000000000       0x2b binaries/lab0app1.o
 .comment       0x0000000000000000       0x2b binaries/lab0app2.o
 .comment       0x0000000000000000       0x2b binaries/main.o
 .comment       0x0000000000000000       0x2b binaries/mark.o
 .comment       0x0000000000000000       0x2b binaries/meminit.o
 .comment       0x0000000000000000       0x2b binaries/mkbufpool.o
 .comment       0x0000000000000000       0x2b binaries/myattacker.o
 .comment       0x0000000000000000       0x2b binaries/myattackermalware.o
 .comment       0x0000000000000000       0x2b binaries/myvictim.o
 .comment       0x0000000000000000       0x2b binaries/newqueue.o
 .comment       0x0000000000000000       0x2b binaries/open.o
 .comment       0x0000000000000000       0x2b binaries/panic.o
 .comment       0x0000000000000000       0x2b binaries/pci.o
 .comment       0x0000000000000000       0x2b binaries/platinit.o
 .comment       0x0000000000000000       0x2b binaries/printsegaddress.o
 .comment       0x0000000000000000       0x2b binaries/ptclear.o
 .comment       0x0000000000000000       0x2b binaries/ptcount.o
 .comment       0x0000000000000000       0x2b binaries/ptcreate.o
 .comment       0x0000000000000000       0x2b binaries/ptdelete.o
 .comment       0x0000000000000000       0x2b binaries/ptinit.o
 .comment       0x0000000000000000       0x2b binaries/ptrecv.o
 .comment       0x0000000000000000       0x2b binaries/ptreset.o
 .comment       0x0000000000000000       0x2b binaries/ptsend.o
 .comment       0x0000000000000000       0x2b binaries/putc.o
 .comment       0x0000000000000000       0x2b binaries/quark_irq.o
 .comment       0x0000000000000000       0x2b binaries/quark_pdat.o
 .comment       0x0000000000000000       0x2b binaries/queue.o
 .comment       0x0000000000000000       0x2b binaries/read.o
 .comment       0x0000000000000000       0x2b binaries/ready.o
 .comment       0x0000000000000000       0x2b binaries/receive.o
 .comment       0x0000000000000000       0x2b binaries/recvclr.o
 .comment       0x0000000000000000       0x2b binaries/recvtime.o
 .comment       0x0000000000000000       0x2b binaries/resched.o
 .comment       0x0000000000000000       0x2b binaries/resume.o
 .comment       0x0000000000000000       0x2b binaries/seek.o
 .comment       0x0000000000000000       0x2b binaries/semcount.o
 .comment       0x0000000000000000       0x2b binaries/semcreate.o
 .comment       0x0000000000000000       0x2b binaries/semdelete.o
 .comment       0x0000000000000000       0x2b binaries/semreset.o
 .comment       0x0000000000000000       0x2b binaries/send.o
 .comment       0x0000000000000000       0x2b binaries/signal.o
 .comment       0x0000000000000000       0x2b binaries/signaln.o
 .comment       0x0000000000000000       0x2b binaries/sleep.o
 .comment       0x0000000000000000       0x2b binaries/stackdepth.o
 .comment       0x0000000000000000       0x2b binaries/stacktrace.o
 .comment       0x0000000000000000       0x2b binaries/suspend.o
 .comment       0x0000000000000000       0x2b binaries/unsleep.o
 .comment       0x0000000000000000       0x2b binaries/userret.o
 .comment       0x0000000000000000       0x2b binaries/wait.o
 .comment       0x0000000000000000       0x2b binaries/wakeup.o
 .comment       0x0000000000000000       0x2b binaries/write.o
 .comment       0x0000000000000000       0x2b binaries/xdone.o
 .comment       0x0000000000000000       0x2b binaries/yield.o
 .comment       0x0000000000000000       0x2b binaries/abs.o
 .comment       0x0000000000000000       0x2b binaries/atoi.o
 .comment       0x0000000000000000       0x2b binaries/atol.o
 .comment       0x0000000000000000       0x2b binaries/bzero.o
 .comment       0x0000000000000000       0x2b binaries/ctype_.o
 .comment       0x0000000000000000       0x2b binaries/doprnt.o
 .comment       0x0000000000000000       0x2b binaries/doscan.o
 .comment       0x0000000000000000       0x2b binaries/fdoprnt.o
 .comment       0x0000000000000000       0x2b binaries/fgetc.o
 .comment       0x0000000000000000       0x2b binaries/fgets.o
 .comment       0x0000000000000000       0x2b binaries/fprintf.o
 .comment       0x0000000000000000       0x2b binaries/fputc.o
 .comment       0x0000000000000000       0x2b binaries/fputs.o
 .comment       0x0000000000000000       0x2b binaries/fscanf.o
 .comment       0x0000000000000000       0x2b binaries/getchar.o
 .comment       0x0000000000000000       0x2b binaries/labs.o
 .comment       0x0000000000000000       0x2b binaries/memchr.o
 .comment       0x0000000000000000       0x2b binaries/memcmp.o
 .comment       0x0000000000000000       0x2b binaries/memcpy.o
 .comment       0x0000000000000000       0x2b binaries/memset.o
 .comment       0x0000000000000000       0x2b binaries/printf.o
 .comment       0x0000000000000000       0x2b binaries/putchar.o
 .comment       0x0000000000000000       0x2b binaries/qsort.o
 .comment       0x0000000000000000       0x2b binaries/rand.o
 .comment       0x0000000000000000       0x2b binaries/sprintf.o
 .comment       0x0000000000000000       0x2b binaries/sscanf.o
 .comment       0x0000000000000000       0x2b binaries/strchr.o
 .comment       0x0000000000000000       0x2b binaries/strcmp.o
 .comment       0x0000000000000000       0x2b binaries/strcpy.o
 .comment       0x0000000000000000       0x2b binaries/strlen.o
 .comment       0x0000000000000000       0x2b binaries/strncat.o
 .comment       0x0000000000000000       0x2b binaries/strncmp.o
 .comment       0x0000000000000000       0x2b binaries/strncpy.o
 .comment       0x0000000000000000       0x2b binaries/strnlen.o
 .comment       0x0000000000000000       0x2b binaries/strrchr.o
 .comment       0x0000000000000000       0x2b binaries/strstr.o
 .comment       0x0000000000000000       0x2b binaries/ttycontrol.o
 .comment       0x0000000000000000       0x2b binaries/ttygetc.o
 .comment       0x0000000000000000       0x2b binaries/ttyhandle_in.o
 .comment       0x0000000000000000       0x2b binaries/ttyhandle_out.o
 .comment       0x0000000000000000       0x2b binaries/ttyhandler.o
 .comment       0x0000000000000000       0x2b binaries/ttyinit.o
 .comment       0x0000000000000000       0x2b binaries/ttykickout.o
 .comment       0x0000000000000000       0x2b binaries/ttyputc.o
 .comment       0x0000000000000000       0x2b binaries/ttyread.o
 .comment       0x0000000000000000       0x2b binaries/ttywrite.o
 .comment       0x0000000000000000       0x2b binaries/mount.o
 .comment       0x0000000000000000       0x2b binaries/naminit.o
 .comment       0x0000000000000000       0x2b binaries/nammap.o
 .comment       0x0000000000000000       0x2b binaries/namopen.o
 .comment       0x0000000000000000       0x2b binaries/colon2mac.o
 .comment       0x0000000000000000       0x2b binaries/ethcontrol.o
 .comment       0x0000000000000000       0x2b binaries/ethhandler.o
 .comment       0x0000000000000000       0x2b binaries/ethinit.o
 .comment       0x0000000000000000       0x2b binaries/ethmcast.o
 .comment       0x0000000000000000       0x2b binaries/ethread.o
 .comment       0x0000000000000000       0x2b binaries/ethwrite.o
 .comment       0x0000000000000000       0x2b binaries/rdsbufalloc.o
 .comment       0x0000000000000000       0x2b binaries/rdsclose.o
 .comment       0x0000000000000000       0x2b binaries/rdscomm.o
 .comment       0x0000000000000000       0x2b binaries/rdscontrol.o
 .comment       0x0000000000000000       0x2b binaries/rdsinit.o
 .comment       0x0000000000000000       0x2b binaries/rdsopen.o
 .comment       0x0000000000000000       0x2b binaries/rdsprocess.o
 .comment       0x0000000000000000       0x2b binaries/rdsread.o
 .comment       0x0000000000000000       0x2b binaries/rdswrite.o
 .comment       0x0000000000000000       0x2b binaries/ramclose.o
 .comment       0x0000000000000000       0x2b binaries/raminit.o
 .comment       0x0000000000000000       0x2b binaries/ramopen.o
 .comment       0x0000000000000000       0x2b binaries/ramread.o
 .comment       0x0000000000000000       0x2b binaries/ramwrite.o
 .comment       0x0000000000000000       0x2b binaries/lfdballoc.o
 .comment       0x0000000000000000       0x2b binaries/lfdbfree.o
 .comment       0x0000000000000000       0x2b binaries/lfflush.o
 .comment       0x0000000000000000       0x2b binaries/lfgetmode.o
 .comment       0x0000000000000000       0x2b binaries/lfiballoc.o
 .comment       0x0000000000000000       0x2b binaries/lfibclear.o
 .comment       0x0000000000000000       0x2b binaries/lfibget.o
 .comment       0x0000000000000000       0x2b binaries/lfibput.o
 .comment       0x0000000000000000       0x2b binaries/lflclose.o
 .comment       0x0000000000000000       0x2b binaries/lflcontrol.o
 .comment       0x0000000000000000       0x2b binaries/lflgetc.o
 .comment       0x0000000000000000       0x2b binaries/lflinit.o
 .comment       0x0000000000000000       0x2b binaries/lflputc.o
 .comment       0x0000000000000000       0x2b binaries/lflread.o
 .comment       0x0000000000000000       0x2b binaries/lflseek.o
 .comment       0x0000000000000000       0x2b binaries/lflwrite.o
 .comment       0x0000000000000000       0x2b binaries/lfsckfmt.o
 .comment       0x0000000000000000       0x2b binaries/lfscreate.o
 .comment       0x0000000000000000       0x2b binaries/lfsetup.o
 .comment       0x0000000000000000       0x2b binaries/lfsinit.o
 .comment       0x0000000000000000       0x2b binaries/lfsopen.o
 .comment       0x0000000000000000       0x2b binaries/lftruncate.o
 .comment       0x0000000000000000       0x2b binaries/rflclose.o
 .comment       0x0000000000000000       0x2b binaries/rflgetc.o
 .comment       0x0000000000000000       0x2b binaries/rflinit.o
 .comment       0x0000000000000000       0x2b binaries/rflputc.o
 .comment       0x0000000000000000       0x2b binaries/rflread.o
 .comment       0x0000000000000000       0x2b binaries/rflseek.o
 .comment       0x0000000000000000       0x2b binaries/rflwrite.o
 .comment       0x0000000000000000       0x2b binaries/rfscomm.o
 .comment       0x0000000000000000       0x2b binaries/rfscontrol.o
 .comment       0x0000000000000000       0x2b binaries/rfsgetmode.o
 .comment       0x0000000000000000       0x2b binaries/rfsinit.o
 .comment       0x0000000000000000       0x2b binaries/rfsndmsg.o
 .comment       0x0000000000000000       0x2b binaries/rfsopen.o
 .comment       0x0000000000000000       0x2b binaries/arp.o
 .comment       0x0000000000000000       0x2b binaries/dhcp.o
 .comment       0x0000000000000000       0x2b binaries/dot2ip.o
 .comment       0x0000000000000000       0x2b binaries/hexdump.o
 .comment       0x0000000000000000       0x2b binaries/icmp.o
 .comment       0x0000000000000000       0x2b binaries/ip.o
 .comment       0x0000000000000000       0x2b binaries/net.o
 .comment       0x0000000000000000       0x2b binaries/netstart.o
 .comment       0x0000000000000000       0x2b binaries/pdump.o
 .comment       0x0000000000000000       0x2b binaries/tftp.o
 .comment       0x0000000000000000       0x2b binaries/udp.o
 .comment       0x0000000000000000       0x2b binaries/addargs.o
 .comment       0x0000000000000000       0x2b binaries/lexan.o
 .comment       0x0000000000000000       0x2b binaries/shell.o
 .comment       0x0000000000000000       0x2b binaries/xsh_argecho.o
 .comment       0x0000000000000000       0x2b binaries/xsh_arp.o
 .comment       0x0000000000000000       0x2b binaries/xsh_cat.o
 .comment       0x0000000000000000       0x2b binaries/xsh_cd.o
 .comment       0x0000000000000000       0x2b binaries/xsh_clear.o
 .comment       0x0000000000000000       0x2b binaries/xsh_date.o
 .comment       0x0000000000000000       0x2b binaries/xsh_devdump.o
 .comment       0x0000000000000000       0x2b binaries/xsh_echo.o
 .comment       0x0000000000000000       0x2b binaries/xsh_exit.o
 .comment       0x0000000000000000       0x2b binaries/xsh_help.o
 .comment       0x0000000000000000       0x2b binaries/xsh_ipaddr.o
 .comment       0x0000000000000000       0x2b binaries/xsh_kill.o
 .comment       0x0000000000000000       0x2b binaries/xsh_memdump.o
 .comment       0x0000000000000000       0x2b binaries/xsh_memstat.o
 .comment       0x0000000000000000       0x2b binaries/xsh_ping.o
 .comment       0x0000000000000000       0x2b binaries/xsh_ps.o
 .comment       0x0000000000000000       0x2b binaries/xsh_sleep.o
 .comment       0x0000000000000000       0x2b binaries/xsh_udpdump.o
 .comment       0x0000000000000000       0x2b binaries/xsh_udpecho.o
 .comment       0x0000000000000000       0x2b binaries/xsh_udpeserver.o
 .comment       0x0000000000000000       0x2b binaries/xsh_uptime.o

.note.GNU-stack
                0x0000000000000000        0x0
 .note.GNU-stack
                0x0000000000000000        0x0 binaries/ascdate.o
 .note.GNU-stack
                0x0000000000000000        0x0 binaries/bufinit.o
 .note.GNU-stack
                0x0000000000000000        0x0 binaries/chprio.o
 .note.GNU-stack
                0x0000000000000000        0x0 binaries/clkhandler.o
 .note.GNU-stack
                0x0000000000000000        0x0 binaries/clkinit.o
 .note.GNU-stack
                0x0000000000000000        0x0 binaries/close.o
 .note.GNU-stack
                0x0000000000000000        0x0 binaries/conf.o
 .note.GNU-stack
                0x0000000000000000        0x0 binaries/control.o
 .note.GNU-stack
                0x0000000000000000        0x0 binaries/cpuintensive.o
 .note.GNU-stack
                0x0000000000000000        0x0 binaries/create.o
 .note.GNU-stack
                0x0000000000000000        0x0 binaries/early_imr.o
 .note.GNU-stack
                0x0000000000000000        0x0 binaries/evec.o
 .note.GNU-stack
                0x0000000000000000        0x0 binaries/freebuf.o
 .note.GNU-stack
                0x0000000000000000        0x0 binaries/freemem.o
 .note.GNU-stack
                0x0000000000000000        0x0 binaries/getbuf.o
 .note.GNU-stack
                0x0000000000000000        0x0 binaries/getc.o
 .note.GNU-stack
                0x0000000000000000        0x0 binaries/getdev.o
 .note.GNU-stack
                0x0000000000000000        0x0 binaries/getitem.o
 .note.GNU-stack
                0x0000000000000000        0x0 binaries/getmem.o
 .note.GNU-stack
                0x0000000000000000        0x0 binaries/getpid.o
 .note.GNU-stack
                0x0000000000000000        0x0 binaries/getprio.o
 .note.GNU-stack
                0x0000000000000000        0x0 binaries/getstk.o
 .note.GNU-stack
                0x0000000000000000        0x0 binaries/gettime.o
 .note.GNU-stack
                0x0000000000000000        0x0 binaries/getutime.o
 .note.GNU-stack
                0x0000000000000000        0x0 binaries/init.o
 .note.GNU-stack
                0x0000000000000000        0x0 binaries/initialize.o
 .note.GNU-stack
                0x0000000000000000        0x0 binaries/insert.o
 .note.GNU-stack
                0x0000000000000000        0x0 binaries/insertd.o
 .note.GNU-stack
                0x0000000000000000        0x0 binaries/ioerr.o
 .note.GNU-stack
                0x0000000000000000        0x0 binaries/iointensive.o
 .note.GNU-stack
                0x0000000000000000        0x0 binaries/ionull.o
 .note.GNU-stack
                0x0000000000000000        0x0 binaries/kill.o
 .note.GNU-stack
                0x0000000000000000        0x0 binaries/kprintf.o
 .note.GNU-stack
                0x0000000000000000        0x0 binaries/lab0app1.o
 .note.GNU-stack
                0x0000000000000000        0x0 binaries/lab0app2.o
 .note.GNU-stack
                0x0000000000000000        0x0 binaries/main.o
 .note.GNU-stack
                0x0000000000000000        0x0 binaries/mark.o
 .note.GNU-stack
                0x0000000000000000        0x0 binaries/meminit.o
 .note.GNU-stack
                0x0000000000000000        0x0 binaries/mkbufpool.o
 .note.GNU-stack
                0x0000000000000000        0x0 binaries/myattacker.o
 .note.GNU-stack
                0x0000000000000000        0x0 binaries/myattackermalware.o
 .note.GNU-stack
                0x0000000000000000        0x0 binaries/myvictim.o
 .note.GNU-stack
                0x0000000000000000        0x0 binaries/newqueue.o
 .note.GNU-stack
                0x0000000000000000        0x0 binaries/open.o
 .note.GNU-stack
                0x0000000000000000        0x0 binaries/panic.o
 .note.GNU-stack
                0x0000000000000000        0x0 binaries/pci.o
 .note.GNU-stack
                0x0000000000000000        0x0 binaries/platinit.o
 .note.GNU-stack
                0x0000000000000000        0x0 binaries/printsegaddress.o
 .note.GNU-stack
                0x0000000000000000        0x0 binaries/ptclear.o
 .note.GNU-stack
                0x0000000000000000        0x0 binaries/ptcount.o
 .note.GNU-stack
                0x0000000000000000        0x0 binaries/ptcreate.o
 .note.GNU-stack
                0x0000000000000000        0x0 binaries/ptdelete.o
 .note.GNU-stack
                0x0000000000000000        0x0 binaries/ptinit.o
 .note.GNU-stack
                0x0000000000000000        0x0 binaries/ptrecv.o
 .note.GNU-stack
                0x0000000000000000        0x0 binaries/ptreset.o
 .note.GNU-stack
                0x0000000000000000        0x0 binaries/ptsend.o
 .note.GNU-stack
                0x0000000000000000        0x0 binaries/putc.o
 .note.GNU-stack
                0x0000000000000000        0x0 binaries/quark_irq.o
 .note.GNU-stack
                0x0000000000000000        0x0 binaries/quark_pdat.o
 .note.GNU-stack
                0x0000000000000000        0x0 binaries/queue.o
 .note.GNU-stack
                0x0000000000000000        0x0 binaries/read.o
 .note.GNU-stack
                0x0000000000000000        0x0 binaries/ready.o
 .note.GNU-stack
                0x0000000000000000        0x0 binaries/receive.o
 .note.GNU-stack
                0x0000000000000000        0x0 binaries/recvclr.o
 .note.GNU-stack
                0x0000000000000000        0x0 binaries/recvtime.o
 .note.GNU-stack
                0x0000000000000000        0x0 binaries/resched.o
 .note.GNU-stack
                0x0000000000000000        0x0 binaries/resume.o
 .note.GNU-stack
                0x0000000000000000        0x0 binaries/seek.o
 .note.GNU-stack
                0x0000000000000000        0x0 binaries/semcount.o
 .note.GNU-stack
                0x0000000000000000        0x0 binaries/semcreate.o
 .note.GNU-stack
                0x0000000000000000        0x0 binaries/semdelete.o
 .note.GNU-stack
                0x0000000000000000        0x0 binaries/semreset.o
 .note.GNU-stack
                0x0000000000000000        0x0 binaries/send.o
 .note.GNU-stack
                0x0000000000000000        0x0 binaries/signal.o
 .note.GNU-stack
                0x0000000000000000        0x0 binaries/signaln.o
 .note.GNU-stack
                0x0000000000000000        0x0 binaries/sleep.o
 .note.GNU-stack
                0x0000000000000000        0x0 binaries/stackdepth.o
 .note.GNU-stack
                0x0000000000000000        0x0 binaries/stacktrace.o
 .note.GNU-stack
                0x0000000000000000        0x0 binaries/suspend.o
 .note.GNU-stack
                0x0000000000000000        0x0 binaries/unsleep.o
 .note.GNU-stack
                0x0000000000000000        0x0 binaries/userret.o
 .note.GNU-stack
                0x0000000000000000        0x0 binaries/wait.o
 .note.GNU-stack
                0x0000000000000000        0x0 binaries/wakeup.o
 .note.GNU-stack
                0x0000000000000000        0x0 binaries/write.o
 .note.GNU-stack
                0x0000000000000000        0x0 binaries/xdone.o
 .note.GNU-stack
                0x0000000000000000        0x0 binaries/yield.o
 .note.GNU-stack
                0x0000000000000000        0x0 binaries/abs.o
 .note.GNU-stack
                0x0000000000000000        0x0 binaries/atoi.o
 .note.GNU-stack
                0x0000000000000000        0x0 binaries/atol.o
 .note.GNU-stack
                0x0000000000000000        0x0 binaries/bzero.o
 .note.GNU-stack
                0x0000000000000000        0x0 binaries/ctype_.o
 .note.GNU-stack
                0x0000000000000000        0x0 binaries/doprnt.o
 .note.GNU-stack
                0x0000000000000000        0x0 binaries/doscan.o
 .note.GNU-stack
                0x0000000000000000        0x0 binaries/fdoprnt.o
 .note.GNU-stack
                0x0000000000000000        0x0 binaries/fgetc.o
 .note.GNU-stack
                0x0000000000000000        0x0 binaries/fgets.o
 .note.GNU-stack
                0x0000000000000000        0x0 binaries/fprintf.o
 .note.GNU-stack
                0x0000000000000000        0x0 binaries/fputc.o
 .note.GNU-stack
                0x0000000000000000        0x0 binaries/fputs.o
 .note.GNU-stack
                0x0000000000000000        0x0 binaries/fscanf.o
 .note.GNU-stack
                0x0000000000000000        0x0 binaries/getchar.o
 .note.GNU-stack
                0x0000000000000000        0x0 binaries/labs.o
 .note.GNU-stack
                0x0000000000000000        0x0 binaries/memchr.o
 .note.GNU-stack
                0x0000000000000000        0x0 binaries/memcmp.o
 .note.GNU-stack
                0x0000000000000000        0x0 binaries/memcpy.o
 .note.GNU-stack
                0x0000000000000000        0x0 binaries/memset.o
 .note.GNU-stack
                0x0000000000000000        0x0 binaries/printf.o
 .note.GNU-stack
                0x0000000000000000        0x0 binaries/putchar.o
 .note.GNU-stack
                0x0000000000000000        0x0 binaries/qsort.o
 .note.GNU-stack
                0x0000000000000000        0x0 binaries/rand.o
 .note.GNU-stack
                0x0000000000000000        0x0 binaries/sprintf.o
 .note.GNU-stack
                0x0000000000000000        0x0 binaries/sscanf.o
 .note.GNU-stack
                0x0000000000000000        0x0 binaries/strchr.o
 .note.GNU-stack
                0x0000000000000000        0x0 binaries/strcmp.o
 .note.GNU-stack
                0x0000000000000000        0x0 binaries/strcpy.o
 .note.GNU-stack
                0x0000000000000000        0x0 binaries/strlen.o
 .note.GNU-stack
                0x0000000000000000        0x0 binaries/strncat.o
 .note.GNU-stack
                0x0000000000000000        0x0 binaries/strncmp.o
 .note.GNU-stack
                0x0000000000000000        0x0 binaries/strncpy.o
 .note.GNU-stack
                0x0000000000000000        0x0 binaries/strnlen.o
 .note.GNU-stack
                0x0000000000000000        0x0 binaries/strrchr.o
 .note.GNU-stack
                0x0000000000000000        0x0 binaries/strstr.o
 .note.GNU-stack
                0x0000000000000000        0x0 binaries/ttycontrol.o
 .note.GNU-stack
                0x0000000000000000        0x0 binaries/ttygetc.o
 .note.GNU-stack
                0x0000000000000000        0x0 binaries/ttyhandle_in.o
 .note.GNU-stack
                0x0000000000000000        0x0 binaries/ttyhandle_out.o
 .note.GNU-stack
                0x0000000000000000        0x0 binaries/ttyhandler.o
 .note.GNU-stack
                0x0000000000000000        0x0 binaries/ttyinit.o
 .note.GNU-stack
                0x0000000000000000        0x0 binaries/ttykickout.o
 .note.GNU-stack
                0x0000000000000000        0x0 binaries/ttyputc.o
 .note.GNU-stack
                0x0000000000000000        0x0 binaries/ttyread.o
 .note.GNU-stack
                0x0000000000000000        0x0 binaries/ttywrite.o
 .note.GNU-stack
                0x0000000000000000        0x0 binaries/mount.o
 .note.GNU-stack
                0x0000000000000000        0x0 binaries/naminit.o
 .note.GNU-stack
                0x0000000000000000        0x0 binaries/nammap.o
 .note.GNU-stack
                0x0000000000000000        0x0 binaries/namopen.o
 .note.GNU-stack
                0x0000000000000000        0x0 binaries/colon2mac.o
 .note.GNU-stack
                0x0000000000000000        0x0 binaries/ethcontrol.o
 .note.GNU-stack
                0x0000000000000000        0x0 binaries/ethhandler.o
 .note.GNU-stack
                0x0000000000000000        0x0 binaries/ethinit.o
 .note.GNU-stack
                0x0000000000000000        0x0 binaries/ethmcast.o
 .note.GNU-stack
                0x0000000000000000        0x0 binaries/ethread.o
 .note.GNU-stack
                0x0000000000000000        0x0 binaries/ethwrite.o
 .note.GNU-stack
                0x0000000000000000        0x0 binaries/rdsbufalloc.o
 .note.GNU-stack
                0x0000000000000000        0x0 binaries/rdsclose.o
 .note.GNU-stack
                0x0000000000000000        0x0 binaries/rdscomm.o
 .note.GNU-stack
                0x0000000000000000        0x0 binaries/rdscontrol.o
 .note.GNU-stack
                0x0000000000000000        0x0 binaries/rdsinit.o
 .note.GNU-stack
                0x0000000000000000        0x0 binaries/rdsopen.o
 .note.GNU-stack
                0x0000000000000000        0x0 binaries/rdsprocess.o
 .note.GNU-stack
                0x0000000000000000        0x0 binaries/rdsread.o
 .note.GNU-stack
                0x0000000000000000        0x0 binaries/rdswrite.o
 .note.GNU-stack
                0x0000000000000000        0x0 binaries/ramclose.o
 .note.GNU-stack
                0x0000000000000000        0x0 binaries/raminit.o
 .note.GNU-stack
                0x0000000000000000        0x0 binaries/ramopen.o
 .note.GNU-stack
                0x0000000000000000        0x0 binaries/ramread.o
 .note.GNU-stack
                0x0000000000000000        0x0 binaries/ramwrite.o
 .note.GNU-stack
                0x0000000000000000        0x0 binaries/lfdballoc.o
 .note.GNU-stack
                0x0000000000000000        0x0 binaries/lfdbfree.o
 .note.GNU-stack
                0x0000000000000000        0x0 binaries/lfflush.o
 .note.GNU-stack
                0x0000000000000000        0x0 binaries/lfgetmode.o
 .note.GNU-stack
                0x0000000000000000        0x0 binaries/lfiballoc.o
 .note.GNU-stack
                0x0000000000000000        0x0 binaries/lfibclear.o
 .note.GNU-stack
                0x0000000000000000        0x0 binaries/lfibget.o
 .note.GNU-stack
                0x0000000000000000        0x0 binaries/lfibput.o
 .note.GNU-stack
                0x0000000000000000        0x0 binaries/lflclose.o
 .note.GNU-stack
                0x0000000000000000        0x0 binaries/lflcontrol.o
 .note.GNU-stack
                0x0000000000000000        0x0 binaries/lflgetc.o
 .note.GNU-stack
                0x0000000000000000        0x0 binaries/lflinit.o
 .note.GNU-stack
                0x0000000000000000        0x0 binaries/lflputc.o
 .note.GNU-stack
                0x0000000000000000        0x0 binaries/lflread.o
 .note.GNU-stack
                0x0000000000000000        0x0 binaries/lflseek.o
 .note.GNU-stack
                0x0000000000000000        0x0 binaries/lflwrite.o
 .note.GNU-stack
                0x0000000000000000        0x0 binaries/lfsckfmt.o
 .note.GNU-stack
                0x0000000000000000        0x0 binaries/lfscreate.o
 .note.GNU-stack
                0x0000000000000000        0x0 binaries/lfsetup.o
 .note.GNU-stack
                0x0000000000000000        0x0 binaries/lfsinit.o
 .note.GNU-stack
                0x0000000000000000        0x0 binaries/lfsopen.o
 .note.GNU-stack
                0x0000000000000000        0x0 binaries/lftruncate.o
 .note.GNU-stack
                0x0000000000000000        0x0 binaries/rflclose.o
 .note.GNU-stack
                0x0000000000000000        0x0 binaries/rflgetc.o
 .note.GNU-stack
                0x0000000000000000        0x0 binaries/rflinit.o
 .note.GNU-stack
                0x0000000000000000        0x0 binaries/rflputc.o
 .note.GNU-stack
                0x0000000000000000        0x0 binaries/rflread.o
 .note.GNU-stack
                0x0000000000000000        0x0 binaries/rflseek.o
 .note.GNU-stack
                0x0000000000000000        0x0 binaries/rflwrite.o
 .note.GNU-stack
                0x0000000000000000        0x0 binaries/rfscomm.o
 .note.GNU-stack
                0x0000000000000000        0x0 binaries/rfscontrol.o
 .note.GNU-stack
                0x0000000000000000        0x0 binaries/rfsgetmode.o
 .note.GNU-stack
                0x0000000000000000        0x0 binaries/rfsinit.o
 .note.GNU-stack
                0x0000000000000000        0x0 binaries/rfsndmsg.o
 .note.GNU-stack
                0x0000000000000000        0x0 binaries/rfsopen.o
 .note.GNU-stack
                0x0000000000000000        0x0 binaries/arp.o
 .note.GNU-stack
                0x0000000000000000        0x0 binaries/dhcp.o
 .note.GNU-stack
                0x0000000000000000        0x0 binaries/dot2ip.o
 .note.GNU-stack
                0x0000000000000000        0x0 binaries/hexdump.o
 .note.GNU-stack
                0x0000000000000000        0x0 binaries/icmp.o
 .note.GNU-stack
                0x0000000000000000        0x0 binaries/ip.o
 .note.GNU-stack
                0x0000000000000000        0x0 binaries/net.o
 .note.GNU-stack
                0x0000000000000000        0x0 binaries/netstart.o
 .note.GNU-stack
                0x0000000000000000        0x0 binaries/pdump.o
 .note.GNU-stack
                0x0000000000000000        0x0 binaries/tftp.o
 .note.GNU-stack
                0x0000000000000000        0x0 binaries/udp.o
 .note.GNU-stack
                0x0000000000000000        0x0 binaries/addargs.o
 .note.GNU-stack
                0x0000000000000000        0x0 binaries/lexan.o
 .note.GNU-stack
                0x0000000000000000        0x0 binaries/shell.o
 .note.GNU-stack
                0x0000000000000000        0x0 binaries/xsh_argecho.o
 .note.GNU-stack
                0x0000000000000000        0x0 binaries/xsh_arp.o
 .note.GNU-stack
                0x0000000000000000        0x0 binaries/xsh_cat.o
 .note.GNU-stack
                0x0000000000000000        0x0 binaries/xsh_cd.o
 .note.GNU-stack
                0x0000000000000000        0x0 binaries/xsh_clear.o
 .note.GNU-stack
                0x0000000000000000        0x0 binaries/xsh_date.o
 .note.GNU-stack
                0x0000000000000000        0x0 binaries/xsh_devdump.o
 .note.GNU-stack
                0x0000000000000000        0x0 binaries/xsh_echo.o
 .note.GNU-stack
                0x0000000000000000        0x0 binaries/xsh_exit.o
 .note.GNU-stack
                0x0000000000000000        0x0 binaries/xsh_help.o
 .note.GNU-stack
                0x0000000000000000        0x0 binaries/xsh_ipaddr.o
 .note.GNU-stack
                0x0000000000000000        0x0 binaries/xsh_kill.o
 .note.GNU-stack
                0x0000000000000000        0x0 binaries/xsh_memdump.o
 .note.GNU-stack
                0x0000000000000000        0x0 binaries/xsh_memstat.o
 .note.GNU-stack
                0x0000000000000000        0x0 binaries/xsh_ping.o
 .note.GNU-stack
                0x0000000000000000        0x0 binaries/xsh_ps.o
 .note.GNU-stack
                0x0000000000000000        0x0 binaries/xsh_sleep.o
 .note.GNU-stack
                0x0000000000000000        0x0 binaries/xsh_udpdump.o
 .note.GNU-stack
                0x0000000000000000        0x0 binaries/xsh_udpecho.o
 .note.GNU-stack
                0x0000000000000000        0x0 binaries/xsh_udpeserver.o
 .note.GNU-stack
                0x0000000000000000        0x0 binaries/xsh_uptime.o
